

HI-TECH Software PICC Macro Assembler V9.60PL5 build 3884 
                                                      Tue Oct 20 10:29:57 2009

HI-TECH Software Omniscient Code Generator build 3884
     1  0000                     opt subtitle "HI-TECH Software Omniscient Code 
                                 Generator build 3884"
     2                           
     3                           	processor	12F683
     4                           clrc	macro
     5                           	bcf	status,0
     6  0000                     	endm
     7                           clrz	macro
     8                           	bcf	status,2
     9  0000                     	endm
    10                           setc	macro
    11                           	bsf	status,0
    12  0000                     	endm
    13                           setz	macro
    14                           	bsf	status,2
    15  0000                     	endm
    16                           skipc	macro
    17                           	btfss	status,0
    18  0000                     	endm
    19                           skipz	macro
    20                           	btfss	status,2
    21  0000                     	endm
    22                           skipnc	macro
    23                           	btfsc	status,0
    24  0000                     	endm
    25                           skipnz	macro
    26                           	btfsc	status,2
    27  0000                     	endm
    28  0000                     indf	equ	0
    29  0000                     indf0	equ	0
    30  0000                     pc	equ	2
    31  0000                     pcl	equ	2
    32  0000                     status	equ	3
    33  0000                     fsr	equ	4
    34  0000                     fsr0	equ	4
    35  0000                     c	equ	1
    36  0000                     z	equ	0
    37  0000                     pclath	equ	10
    38                           # 11 "C:\pic\ir-remocon\ir-remocon.c"
    39                           	psect config,class=CONFIG,delta=2 ;#
    40                           # 11 "C:\pic\ir-remocon\ir-remocon.c"
    41  2007  30C4               	dw 0x3FDF & 0x3FEF & 0x3CFF & 0x3FFF & 0x3FF7 
                                 & 0x3FFC & 0x37FF & 0x3BFF ;#
    42                           # 22 "C:\pic\ir-remocon\ir-remocon.c"
    43                           	psect idloc,class=IDLOC,delta=2 ;#
    44                           # 22 "C:\pic\ir-remocon\ir-remocon.c"
    45                           	global	idloc_word ;#
    46                           # 22 "C:\pic\ir-remocon\ir-remocon.c"
    47  2000                     idloc_word ;#
    48                           # 22 "C:\pic\ir-remocon\ir-remocon.c"
    49                           	irpc	__arg,F683 ;#
    50                           # 22 "C:\pic\ir-remocon\ir-remocon.c"
    51                           	dw 0&__arg&h ;#
    52                           # 22 "C:\pic\ir-remocon\ir-remocon.c"
    53  2000                     	endm ;#
      + 2000  000F               	dw	15
      + 2001  0006               	dw	6
      + 2002  0008               	dw	8
      + 2003  0003               	dw	3
    54                           global __tempreg
    55  0000                     __tempreg	set	81
    56                           global __Lrbss_0, __Hrbss_0
    57  0000                     __Lrbss_0 set 0x40
    58  0000                     __Hrbss_0 set 0x51
    59                           global __Lcommon, __Hcommon
    60  0000                     __Lcommon set 0x70
    61  0000                     __Hcommon set 0x7E
    62                           global __Lrdata_0, __Hrdata_0
    63  0000                     __Lrdata_0	equ	0x0
    64  0000                     __Hrdata_0	equ	0x1
    65                           global __Lramdata, __Lrdata_0, __Hramdata, __Hr
                                 data_0
    66  0000                     __Lramdata	set	__Lrdata_0
    67  0000                     __Hramdata	set	__Hrdata_0
    68                           	GLOBAL	__databank
    69  0000                     __databank	EQU	0
    70  0000                     _main_i	equ	??_main+0
    71                           	global	_main_i
    72  0000                     _deb_sig_s	equ	??_deb_sig+0
    73                           	global	_deb_sig_s
    74  0000                     _deb_sig_d	equ	?_deb_sig+0
    75                           	global	_deb_sig_d
    76  0000                     _ir_save_i	equ	??_ir_save+0
    77                           	global	_ir_save_i
    78  0000                     _deb_dat_d	equ	?_deb_dat+0
    79                           	global	_deb_dat_d
    80  0000                     _deb_dat_h	equ	?_deb_dat+2
    81                           	global	_deb_dat_h
    82  0000                     _ir_control_b	equ	??_ir_control+0
    83                           	global	_ir_control_b
    84  0000                     _ir_control_i	equ	??_ir_control+1
    85                           	global	_ir_control_i
    86  0000                     _ir_load_i	equ	??_ir_load+0
    87                           	global	_ir_load_i
    88  0000                     _ir_analize_b	equ	??_ir_analize+0
    89                           	global	_ir_analize_b
    90  0000                     _ir_analize_i	equ	??_ir_analize+1
    91                           	global	_ir_analize_i
    92  0000                     _ir_analize_sp	equ	??_ir_analize+2
    93                           	global	_ir_analize_sp
    94  0000                     _puthc_d	equ	??_puthc+0
    95                           	global	_puthc_d
    96  0000                     _eeprom_read_addr	equ	??_eeprom_read+0
    97                           	global	_eeprom_read_addr
    98  0000                     _eeprom_write_addr	equ	??_eeprom_write+0
    99                           	global	_eeprom_write_addr
   100  0000                     _eeprom_write_value	equ	?_eeprom_write+0
   101                           	global	_eeprom_write_value
   102  0000                     _ir_shot_t	equ	??_ir_shot+0
   103                           	global	_ir_shot_t
   104  0000                     _putui_i	equ	??_putui+0
   105                           	global	_putui_i
   106  0000                     _putui_buf	equ	??_putui+1
   107                           	global	_putui_buf
   108  0000                     _putui_ui	equ	?_putui+0
   109                           	global	_putui_ui
   110  0000                     _putui_d	equ	?_putui+2
   111                           	global	_putui_d
   112  0000                     _puts_s	equ	??_puts+0
   113                           	global	_puts_s
   114  0000                     _putch_c	equ	??_putch+0
   115                           	global	_putch_c
   116  0000                     ___lwmod_counter	equ	??___lwmod+0
   117                           	global	___lwmod_counter
   118  0000                     ___lwmod_dividend	equ	?___lwmod+0
   119                           	global	___lwmod_dividend
   120  0000                     ___lwmod_divisor	equ	?___lwmod+2
   121                           	global	___lwmod_divisor
   122  0000                     ___lwdiv_counter	equ	??___lwdiv+0
   123                           	global	___lwdiv_counter
   124  0000                     ___lwdiv_quotient	equ	??___lwdiv+1
   125                           	global	___lwdiv_quotient
   126  0000                     ___lwdiv_dividend	equ	?___lwdiv+0
   127                           	global	___lwdiv_dividend
   128  0000                     ___lwdiv_divisor	equ	?___lwdiv+2
   129                           	global	___lwdiv_divisor
   130                           ;Data sizes: Strings 195, constant 16, data 0, 
                                 bss 0, persistent 0 stack 30
   131                           	global	_main
   132                           	global	??_main
   133                           	global	?_main
   134                           
   135                           ; *************** function _main **************
                                 *
   136                           ; Defined at:
   137                           ;		line 33 in file "C:\pic\ir-remocon\ir-remoco
                                 n.c"
   138                           ; Parameters:
   139                           ;		None
   140                           ; Auto variables:
   141                           ;		i           	       	type: unsigned char 
   142                           ; Return value:
   143                           ;		type: void 
   144                           ;		size: 0
   145                           ; Registers used:
   146                           ;		wreg, fsr, status,2, status,0, pclath, cstac
                                 k
   147                           ; Tracked objects:
   148                           ;		On entry : BFF/0
   149                           ;		On exit  : 0/0
   150                           ;		Unchanged: 0/0
   151                           ; Data sizes:
   152                           ;		Autos:    1
   153                           ;		Params:   0
   154                           ;		Temp:     3
   155                           ;		Total:    4
   156                           ; This function calls:
   157                           ;		__delay
   158                           ;		_ir_init
   159                           ;		_scif_tx_init
   160                           ;		_puts
   161                           ;		_ir_analize
   162                           ;		_ir_save
   163                           ;		_deb_sig
   164                           ;		_deb_dat
   165                           ;		_ir_load
   166                           ;		_ir_control
   167                           ; This function is called by:
   168                           ;		Startup code after reset
   169                           ; This function uses a non-reentrant model
   170                           ; 
   171                           	psect	maintext,class=CODE,delta=2
   172                           	file	"C:\pic\ir-remocon\ir-remocon.c"
   173                           	line	33
   174                           	psect	maintext
   175                           ;ir-remocon.c: 33: void main(void){
   176                           	
   177  0022                     _main:	
   178                           ; Regs used in _main: [wreg+fsr+status,2+status
                                 ,0+pclath+cstack]
   179                           	line	36
   180                           ;ir-remocon.c: 34: unsigned char i;
   181                           ;ir-remocon.c: 36: OSCCON = 0b01110000;
   182  0022  3070               	movlw	(070h)
   183  0023  1683               	bsf	status, 5	;RP0=1, select bank1
   184                           	
   185  0024  008F               	movwf	(143)^080h	;volatile
   186                           	line	38
   187                           ;ir-remocon.c: 38: TRISIO5 = 0;
   188  0025  1285               	bcf	(1069/8)^080h,(1069)&7
   189                           	line	39
   190                           ;ir-remocon.c: 39: GPIO5 = 1;
   191  0026  1283               	bcf	status, 5	;RP0=0, select bank0
   192  0027  1685               	bsf	(45/8),(45)&7
   193                           	line	41
   194                           ;ir-remocon.c: 41: GPPU = 0;
   195  0028  1683               	bsf	status, 5	;RP0=1, select bank1
   196  0029  1381               	bcf	(1039/8)^080h,(1039)&7
   197                           	line	42
   198                           ;ir-remocon.c: 42: WPU2 = 1;
   199  002A  1515               	bsf	(1194/8)^080h,(1194)&7
   200                           	line	43
   201                           ;ir-remocon.c: 43: ANS2 = 0;
   202  002B  111F               	bcf	(1274/8)^080h,(1274)&7
   203                           	line	44
   204                           ;ir-remocon.c: 44: TRISIO2 = 1;
   205  002C  1505               	bsf	(1066/8)^080h,(1066)&7
   206                           	line	45
   207                           ;ir-remocon.c: 45: _delay((unsigned long)((10)*
                                 (8000000/4000UL)));
   208  002D  1283               	bcf	status, 5	;RP0=0, select bank0
   209                           	
   210  002E  301A               	movlw	26
   211  002F  00D3               movwf	(??_main+1+0+1),f
   212  0030  30F8               	movlw	248
   213  0031  00D2               movwf	(??_main+1+0),f
   214  0032                     u3437:
   215  0032  0BD2               	decfsz	(??_main+1+0),f
   216  0033  2832               	goto	u3437
   217  0034  0BD3               	decfsz	(??_main+1+0+1),f
   218  0035  2832               	goto	u3437
   219  0036  0064               	clrwdt
   220                           
   221                           	line	46
   222                           ;ir-remocon.c: 46: INTF = 0;
   223  0037  1283               	bcf	status, 5	;RP0=0, select bank0
   224  0038  108B               	bcf	(89/8),(89)&7
   225                           	line	47
   226                           ;ir-remocon.c: 47: INTE = 1;
   227  0039  160B               	bsf	(92/8),(92)&7
   228                           	line	48
   229                           ;ir-remocon.c: 48: (GIE = 1);
   230  003A  178B               	bsf	(95/8),(95)&7
   231                           	line	50
   232                           ;ir-remocon.c: 50: ir_init();
   233  003B  25DD               	fcall	_ir_init
   234                           	line	51
   235                           ;ir-remocon.c: 51: scif_tx_init();
   236  003C  25D1               	fcall	_scif_tx_init
   237                           	line	53
   238                           ;ir-remocon.c: 53: if(GPIO2 == 0){
   239  003D  1283               	bcf	status, 5	;RP0=0, select bank0
   240  003E  1905               	btfsc	(42/8),(42)&7
   241  003F  2841               	goto	u2751
   242  0040  2842               	goto	u2750
   243  0041                     u2751:
   244  0041  28F1               	goto	l4
   245  0042                     u2750:
   246                           	line	54
   247                           ;ir-remocon.c: 54: puts("Ir catch ready.\n");
   248  0042  3011               	movlw	((STR_1-__stringbase))&0ffh
   249  0043  25AC               	fcall	_puts
   250                           	line	55
   251                           ;ir-remocon.c: 55: ir_analize();
   252  0044  21E2               	fcall	_ir_analize
   253                           	line	57
   254                           ;ir-remocon.c: 57: GPIO5 = 0;
   255  0045  1283               	bcf	status, 5	;RP0=0, select bank0
   256  0046  1285               	bcf	(45/8),(45)&7
   257                           	line	58
   258                           ;ir-remocon.c: 58: ir_save();
   259  0047  2484               	fcall	_ir_save
   260                           	line	61
   261                           ;ir-remocon.c: 61: puts("Format = ");
   262  0048  30A1               	movlw	((STR_2-__stringbase))&0ffh
   263  0049  25AC               	fcall	_puts
   264                           	line	62
   265                           ;ir-remocon.c: 62: if(ir_ldrh < 100)
   266  004A  3064               	movlw	(064h)
   267  004B  1283               	bcf	status, 5	;RP0=0, select bank0
   268                           	
   269  004C  0272               	subwf	(114),w
   270  004D  1803               	skipnc
   271  004E  2850               	goto	u2761
   272  004F  2851               	goto	u2760
   273  0050                     u2761:
   274  0050  2854               	goto	l5
   275  0051                     u2760:
   276                           	line	63
   277                           ;ir-remocon.c: 63: puts("Kaden kyokai\n");
   278  0051  3022               	movlw	((STR_3-__stringbase))&0ffh
   279  0052  25AC               	fcall	_puts
   280  0053  2856               	goto	l6
   281                           	line	64
   282                           	
   283  0054                     l5:	
   284                           	line	65
   285                           ;ir-remocon.c: 64: else
   286                           ;ir-remocon.c: 65: puts("NEC\n");
   287  0054  30CF               	movlw	((STR_4-__stringbase))&0ffh
   288  0055  25AC               	fcall	_puts
   289                           	
   290  0056                     l6:	
   291                           	line	66
   292                           ;ir-remocon.c: 66: deb_sig("Signal count", ir_s
                                 cnt);
   293  0056  1283               	bcf	status, 5	;RP0=0, select bank0
   294                           	
   295  0057  0870               	movf	(112),w
   296                           	
   297  0058  00D2               	movwf	(??_main+1+0)
   298  0059  01D3               	clrf	(??_main+1+0+1)
   299                           	
   300  005A  0852               	movf	0+(??_main+1+0),w
   301  005B  00D5               	movwf	(?_deb_sig)
   302  005C  0853               	movf	1+(??_main+1+0),w
   303  005D  00D6               	movwf	(?_deb_sig+1)
   304  005E  3064               	movlw	((STR_5-__stringbase))&0ffh
   305  005F  2582               	fcall	_deb_sig
   306                           	line	67
   307                           ;ir-remocon.c: 67: deb_sig("Leader H/8", ir_ldr
                                 h);
   308  0060  1283               	bcf	status, 5	;RP0=0, select bank0
   309                           	
   310  0061  0872               	movf	(114),w
   311                           	
   312  0062  00D2               	movwf	(??_main+1+0)
   313  0063  01D3               	clrf	(??_main+1+0+1)
   314                           	
   315  0064  0852               	movf	0+(??_main+1+0),w
   316  0065  00D5               	movwf	(?_deb_sig)
   317  0066  0853               	movf	1+(??_main+1+0),w
   318  0067  00D6               	movwf	(?_deb_sig+1)
   319  0068  308B               	movlw	((STR_6-__stringbase))&0ffh
   320  0069  2582               	fcall	_deb_sig
   321                           	line	68
   322                           ;ir-remocon.c: 68: deb_sig("Leader L/8", ir_ldr
                                 l);
   323  006A  1283               	bcf	status, 5	;RP0=0, select bank0
   324                           	
   325  006B  0840               	movf	(64),w
   326                           	
   327  006C  00D2               	movwf	(??_main+1+0)
   328  006D  01D3               	clrf	(??_main+1+0+1)
   329                           	
   330  006E  0852               	movf	0+(??_main+1+0),w
   331  006F  00D5               	movwf	(?_deb_sig)
   332  0070  0853               	movf	1+(??_main+1+0),w
   333  0071  00D6               	movwf	(?_deb_sig+1)
   334  0072  3096               	movlw	((STR_7-__stringbase))&0ffh
   335  0073  2582               	fcall	_deb_sig
   336                           	line	69
   337                           ;ir-remocon.c: 69: deb_sig("Tern max", tl);
   338  0074  1283               	bcf	status, 5	;RP0=0, select bank0
   339                           	
   340  0075  0877               	movf	(119),w
   341                           	
   342  0076  00D2               	movwf	(??_main+1+0)
   343  0077  01D3               	clrf	(??_main+1+0+1)
   344                           	
   345  0078  0852               	movf	0+(??_main+1+0),w
   346  0079  00D5               	movwf	(?_deb_sig)
   347  007A  0853               	movf	1+(??_main+1+0),w
   348  007B  00D6               	movwf	(?_deb_sig+1)
   349  007C  30B4               	movlw	((STR_8-__stringbase))&0ffh
   350  007D  2582               	fcall	_deb_sig
   351                           	line	70
   352                           ;ir-remocon.c: 70: deb_sig("Tern min", ts);
   353  007E  1283               	bcf	status, 5	;RP0=0, select bank0
   354                           	
   355  007F  0878               	movf	(120),w
   356                           	
   357  0080  00D2               	movwf	(??_main+1+0)
   358  0081  01D3               	clrf	(??_main+1+0+1)
   359                           	
   360  0082  0852               	movf	0+(??_main+1+0),w
   361  0083  00D5               	movwf	(?_deb_sig)
   362  0084  0853               	movf	1+(??_main+1+0),w
   363  0085  00D6               	movwf	(?_deb_sig+1)
   364  0086  30AB               	movlw	((STR_9-__stringbase))&0ffh
   365  0087  2582               	fcall	_deb_sig
   366                           	line	71
   367                           ;ir-remocon.c: 71: deb_sig("Tern avg", ir_turn)
                                 ;
   368  0088  1283               	bcf	status, 5	;RP0=0, select bank0
   369                           	
   370  0089  087A               	movf	(122),w
   371                           	
   372  008A  00D2               	movwf	(??_main+1+0)
   373  008B  01D3               	clrf	(??_main+1+0+1)
   374                           	
   375  008C  0852               	movf	0+(??_main+1+0),w
   376  008D  00D5               	movwf	(?_deb_sig)
   377  008E  0853               	movf	1+(??_main+1+0),w
   378  008F  00D6               	movwf	(?_deb_sig+1)
   379  0090  30C6               	movlw	((STR_10-__stringbase))&0ffh
   380  0091  2582               	fcall	_deb_sig
   381                           	line	72
   382                           ;ir-remocon.c: 72: deb_sig("Signal H max", hl);
   383  0092  1283               	bcf	status, 5	;RP0=0, select bank0
   384                           	
   385  0093  0873               	movf	(115),w
   386                           	
   387  0094  00D2               	movwf	(??_main+1+0)
   388  0095  01D3               	clrf	(??_main+1+0+1)
   389                           	
   390  0096  0852               	movf	0+(??_main+1+0),w
   391  0097  00D5               	movwf	(?_deb_sig)
   392  0098  0853               	movf	1+(??_main+1+0),w
   393  0099  00D6               	movwf	(?_deb_sig+1)
   394  009A  3071               	movlw	((STR_11-__stringbase))&0ffh
   395  009B  2582               	fcall	_deb_sig
   396                           	line	73
   397                           ;ir-remocon.c: 73: deb_sig("Signal H min", hs);
   398  009C  1283               	bcf	status, 5	;RP0=0, select bank0
   399                           	
   400  009D  0874               	movf	(116),w
   401                           	
   402  009E  00D2               	movwf	(??_main+1+0)
   403  009F  01D3               	clrf	(??_main+1+0+1)
   404                           	
   405  00A0  0852               	movf	0+(??_main+1+0),w
   406  00A1  00D5               	movwf	(?_deb_sig)
   407  00A2  0853               	movf	1+(??_main+1+0),w
   408  00A3  00D6               	movwf	(?_deb_sig+1)
   409  00A4  3030               	movlw	((STR_12-__stringbase))&0ffh
   410  00A5  2582               	fcall	_deb_sig
   411                           	line	74
   412                           ;ir-remocon.c: 74: deb_sig("Signal H avg", ir_s
                                 igh);
   413  00A6  1283               	bcf	status, 5	;RP0=0, select bank0
   414                           	
   415  00A7  0871               	movf	(113),w
   416                           	
   417  00A8  00D2               	movwf	(??_main+1+0)
   418  00A9  01D3               	clrf	(??_main+1+0+1)
   419                           	
   420  00AA  0852               	movf	0+(??_main+1+0),w
   421  00AB  00D5               	movwf	(?_deb_sig)
   422  00AC  0853               	movf	1+(??_main+1+0),w
   423  00AD  00D6               	movwf	(?_deb_sig+1)
   424  00AE  304A               	movlw	((STR_13-__stringbase))&0ffh
   425  00AF  2582               	fcall	_deb_sig
   426                           	line	75
   427                           ;ir-remocon.c: 75: deb_sig("Signal L max", ll);
   428  00B0  1283               	bcf	status, 5	;RP0=0, select bank0
   429                           	
   430  00B1  087B               	movf	(123),w
   431                           	
   432  00B2  00D2               	movwf	(??_main+1+0)
   433  00B3  01D3               	clrf	(??_main+1+0+1)
   434                           	
   435  00B4  0852               	movf	0+(??_main+1+0),w
   436  00B5  00D5               	movwf	(?_deb_sig)
   437  00B6  0853               	movf	1+(??_main+1+0),w
   438  00B7  00D6               	movwf	(?_deb_sig+1)
   439  00B8  307E               	movlw	((STR_14-__stringbase))&0ffh
   440  00B9  2582               	fcall	_deb_sig
   441                           	line	76
   442                           ;ir-remocon.c: 76: deb_sig("Signal L min", ls);
   443  00BA  1283               	bcf	status, 5	;RP0=0, select bank0
   444                           	
   445  00BB  087C               	movf	(124),w
   446                           	
   447  00BC  00D2               	movwf	(??_main+1+0)
   448  00BD  01D3               	clrf	(??_main+1+0+1)
   449                           	
   450  00BE  0852               	movf	0+(??_main+1+0),w
   451  00BF  00D5               	movwf	(?_deb_sig)
   452  00C0  0853               	movf	1+(??_main+1+0),w
   453  00C1  00D6               	movwf	(?_deb_sig+1)
   454  00C2  3057               	movlw	((STR_15-__stringbase))&0ffh
   455  00C3  2582               	fcall	_deb_sig
   456                           	line	77
   457                           ;ir-remocon.c: 77: deb_sig("Signal L avg", ir_s
                                 igl);
   458  00C4  1283               	bcf	status, 5	;RP0=0, select bank0
   459                           	
   460  00C5  0875               	movf	(117),w
   461                           	
   462  00C6  00D2               	movwf	(??_main+1+0)
   463  00C7  01D3               	clrf	(??_main+1+0+1)
   464                           	
   465  00C8  0852               	movf	0+(??_main+1+0),w
   466  00C9  00D5               	movwf	(?_deb_sig)
   467  00CA  0853               	movf	1+(??_main+1+0),w
   468  00CB  00D6               	movwf	(?_deb_sig+1)
   469  00CC  303D               	movlw	((STR_16-__stringbase))&0ffh
   470  00CD  2582               	fcall	_deb_sig
   471                           	line	78
   472                           ;ir-remocon.c: 78: for(i = 0; i < ir_scnt; i++)
                                 {
   473  00CE  1003               	clrc
   474  00CF  1283               	bcf	status, 5	;RP0=0, select bank0
   475                           	
   476  00D0  3000               	movlw	0
   477  00D1  1803               	btfsc	status,0
   478  00D2  3001               	movlw	1
   479  00D3  00D1               	movwf	(_main_i)
   480  00D4  28EA               	goto	l10
   481                           	
   482  00D5                     l7:	
   483                           	line	79
   484                           ;ir-remocon.c: 79: deb_dat(i, ir_sig[i]);
   485                           	
   486  00D5  0851               	movf	(_main_i),w
   487  00D6  1383               	bcf	status, 7	;select IRP bank0
   488                           	
   489  00D7  3E41               	addlw	65&0ffh
   490  00D8  0084               	movwf	fsr
   491                           	
   492  00D9  0800               	movf	indf,w
   493                           	
   494  00DA  00D2               	movwf	(??_main+1+0)
   495                           	
   496  00DB  0852               	movf	(??_main+1+0),w
   497  00DC  00D7               	movwf	(0+?_deb_dat+02h)&07fh
   498                           	
   499  00DD  0851               	movf	(_main_i),w
   500                           	
   501  00DE  00D3               	movwf	(??_main+2+0)
   502  00DF  01D4               	clrf	(??_main+2+0+1)
   503                           	
   504  00E0  0853               	movf	0+(??_main+2+0),w
   505  00E1  00D5               	movwf	(?_deb_dat)
   506  00E2  0854               	movf	1+(??_main+2+0),w
   507  00E3  00D6               	movwf	(?_deb_dat+1)
   508  00E4  256B               	fcall	_deb_dat
   509                           	line	78
   510  00E5  3001               	movlw	(01h)
   511  00E6  1283               	bcf	status, 5	;RP0=0, select bank0
   512  00E7  00D2               	movwf	(??_main+1+0)
   513                           	
   514  00E8  0852               	movf	(??_main+1+0),w
   515  00E9  07D1               	addwf	(_main_i),f
   516                           	
   517  00EA                     l10:	
   518                           	
   519  00EA  0870               	movf	(112),w
   520                           	
   521                           	
   522  00EB  0251               	subwf	(_main_i),w
   523  00EC  1C03               	skipc
   524  00ED  28EF               	goto	u2771
   525  00EE  28F0               	goto	u2770
   526  00EF                     u2771:
   527  00EF  28D5               	goto	l7
   528  00F0                     u2770:
   529                           	
   530  00F0                     l8:	
   531                           	line	81
   532                           ;ir-remocon.c: 80: }
   533                           ;ir-remocon.c: 81: GPIO5 = 1;
   534  00F0  1685               	bsf	(45/8),(45)&7
   535                           	line	82
   536                           	
   537  00F1                     l4:	
   538                           	line	84
   539                           ;ir-remocon.c: 82: }
   540                           ;ir-remocon.c: 84: GPIO5 = 0;
   541  00F1  1285               	bcf	(45/8),(45)&7
   542                           	line	85
   543                           ;ir-remocon.c: 85: ir_load();
   544  00F2  240A               	fcall	_ir_load
   545                           	line	86
   546                           ;ir-remocon.c: 86: GPIO5 = 1;
   547  00F3  1283               	bcf	status, 5	;RP0=0, select bank0
   548  00F4  1685               	bsf	(45/8),(45)&7
   549                           	line	88
   550                           ;ir-remocon.c: 88: while(1){
   551                           	
   552  00F5                     l12:	
   553                           	line	89
   554                           # 89 "C:\pic\ir-remocon\ir-remocon.c"
   555  00F5  0063               sleep ;#
   556                           	psect	maintext
   557                           	line	90
   558                           ;ir-remocon.c: 89: asm("sleep");
   559                           ;ir-remocon.c: 90: ir_control();
   560  00F6  2366               	fcall	_ir_control
   561                           	line	91
   562                           	
   563  00F7                     l11:	
   564                           	line	88
   565  00F7  28F5               	goto	l12
   566                           	global	start
   567  00F8  280F               	ljmp	start
   568                           ; =============== function _main ends =========
                                 ======
   569                           
   570                           GLOBAL __end_of_main
   571  00F9                     	__end_of_main:
   572                           	FNSIZE	_main,4,0
   573                           	psect	maintext
   574                           	line	92
   575                           	signat	_main,88
   576                           	global	_deb_sig
   577                           	global	??_deb_sig
   578                           	global	?_deb_sig
   579                           
   580                           ; *************** function _deb_sig ***********
                                 ****
   581                           ; Defined at:
   582                           ;		line 70 in file "C:\pic\ir-remocon\scif_tx.c
                                 "
   583                           ; Parameters:
   584                           ;		s           	reg:   wr	type: PTR const unsig
                                 ned char ; Largest target is 13
   585                           ;		 -> STR_16(13), STR_15(13), STR_14(13), STR_
                                 13(13), 
   586                           ;		 -> STR_12(13), STR_11(13), STR_10(9), STR_9
                                 (9), 
   587                           ;		 -> STR_8(9), STR_7(11), STR_6(11), STR_5(13
                                 ), 
   588                           ;		d           	offs:   0	type: unsigned int 
   589                           ; Auto variables:
   590                           ;		s           	       	type: PTR const unsigne
                                 d char ; Largest target is 13
   591                           ;		 -> STR_16(13), STR_15(13), STR_14(13), STR_
                                 13(13), 
   592                           ;		 -> STR_12(13), STR_11(13), STR_10(9), STR_9
                                 (9), 
   593                           ;		 -> STR_8(9), STR_7(11), STR_6(11), STR_5(13
                                 ), 
   594                           ; Return value:
   595                           ;		type: void 
   596                           ;		size: 0
   597                           ; Registers used:
   598                           ;		wreg, fsr, status,2, status,0, pclath, cstac
                                 k
   599                           ; Tracked objects:
   600                           ;		On entry : 100/0
   601                           ;		On exit  : 0/0
   602                           ;		Unchanged: 0/0
   603                           ; Data sizes:
   604                           ;		Autos:    1
   605                           ;		Params:   2
   606                           ;		Temp:     1
   607                           ;		Total:    4
   608                           ; This function calls:
   609                           ;		_puts
   610                           ;		_putch
   611                           ;		_putui
   612                           ; This function is called by:
   613                           ;		_main
   614                           ; This function uses a non-reentrant model
   615                           ; 
   616                           	psect	text160,local,class=CODE,delta=2
   617                           	file	"C:\pic\ir-remocon\scif_tx.c"
   618                           	line	70
   619                           ;scif_tx.c: 70: void deb_sig(const unsigned cha
                                 r *s, unsigned int d){
   620                           	
   621  0582                     _deb_sig:	
   622                           ; Regs used in _deb_sig: [wreg+fsr+status,2+sta
                                 tus,0+pclath+cstack]
   623                           ;_deb_sig_s stored from wreg
   624                           	
   625  0582  00D7               	movwf	(_deb_sig_s)
   626                           	line	71
   627                           ;scif_tx.c: 71: puts(s);
   628                           	
   629  0583  0857               	movf	(_deb_sig_s),w
   630  0584  1383               	bcf	status, 7	;select IRP bank0
   631                           	
   632  0585  25AC               	fcall	_puts
   633                           	line	72
   634                           ;scif_tx.c: 72: putch('=');
   635  0586  303D               	movlw	(03Dh)
   636  0587  2525               	fcall	_putch
   637                           	line	73
   638                           ;scif_tx.c: 73: putui(d, 3);
   639  0588  3003               	movlw	(03h)
   640  0589  1283               	bcf	status, 5	;RP0=0, select bank0
   641  058A  00D8               	movwf	(??_deb_sig+1+0)
   642                           	
   643  058B  0858               	movf	(??_deb_sig+1+0),w
   644  058C  00DB               	movwf	(0+?_putui+02h)&07fh
   645                           	
   646                           	
   647  058D  0855               	movf	(_deb_sig_d),w
   648  058E  01D9               	clrf	(?_putui)
   649  058F  07D9               	addwf	(?_putui)
   650  0590  0856               	movf	(_deb_sig_d+1),w
   651  0591  01DA               	clrf	(?_putui+1)
   652  0592  07DA               	addwf	(?_putui+1)
   653  0593  2300               	fcall	_putui
   654                           	line	74
   655                           ;scif_tx.c: 74: putch('\n');
   656  0594  300A               	movlw	(0Ah)
   657  0595  2525               	fcall	_putch
   658                           	line	75
   659                           ;scif_tx.c: 75: }
   660  0596                     l37:	
   661  0596  0008               	return
   662                           ; =============== function _deb_sig ends ======
                                 =========
   663                           
   664                           GLOBAL __end_of_deb_sig
   665  0597                     	__end_of_deb_sig:
   666                           	FNSIZE	_deb_sig,2,2
   667                           	signat	_deb_sig,8312
   668                           	global	_ir_save
   669                           	global	??_ir_save
   670                           	global	?_ir_save
   671                           
   672                           ; *************** function _ir_save ***********
                                 ****
   673                           ; Defined at:
   674                           ;		line 37 in file "C:\pic\ir-remocon\ir.c"
   675                           ; Parameters:
   676                           ;		None
   677                           ; Auto variables:
   678                           ;		i           	       	type: unsigned char 
   679                           ; Return value:
   680                           ;		type: void 
   681                           ;		size: 0
   682                           ; Registers used:
   683                           ;		wreg, fsr, status,2, status,0, pclath, cstac
                                 k
   684                           ; Tracked objects:
   685                           ;		On entry : 100/0
   686                           ;		On exit  : 0/0
   687                           ;		Unchanged: 0/0
   688                           ; Data sizes:
   689                           ;		Autos:    1
   690                           ;		Params:   0
   691                           ;		Temp:     1
   692                           ;		Total:    2
   693                           ; This function calls:
   694                           ;		_eeprom_write
   695                           ; This function is called by:
   696                           ;		_main
   697                           ; This function uses a non-reentrant model
   698                           ; 
   699                           	psect	text161,local,class=CODE,delta=2
   700                           	file	"C:\pic\ir-remocon\ir.c"
   701                           	line	37
   702                           ;ir.c: 37: void ir_save(void){
   703                           	
   704  0484                     _ir_save:	
   705                           ; Regs used in _ir_save: [wreg+fsr+status,2+sta
                                 tus,0+pclath+cstack]
   706                           	line	40
   707                           ;ir.c: 38: unsigned char i;
   708                           ;ir.c: 40: eeprom_write(0, ir_scnt);
   709                           	
   710  0484  0870               	movf	(112),w
   711                           	
   712                           	
   713  0485  00D7               	movwf	(?_eeprom_write)
   714  0486  3000               	movlw	(0)
   715  0487  24F5               	fcall	_eeprom_write
   716                           	line	41
   717                           ;ir.c: 41: eeprom_write(1, ir_ldrh);
   718  0488  1283               	bcf	status, 5	;RP0=0, select bank0
   719                           	
   720  0489  0872               	movf	(114),w
   721                           	
   722                           	
   723  048A  00D7               	movwf	(?_eeprom_write)
   724  048B  3001               	movlw	(01h)
   725  048C  24F5               	fcall	_eeprom_write
   726                           	line	42
   727                           ;ir.c: 42: eeprom_write(2, ir_ldrl);
   728  048D  1283               	bcf	status, 5	;RP0=0, select bank0
   729                           	
   730  048E  0840               	movf	(64),w
   731                           	
   732                           	
   733  048F  00D7               	movwf	(?_eeprom_write)
   734  0490  3002               	movlw	(02h)
   735  0491  24F5               	fcall	_eeprom_write
   736                           	line	43
   737                           ;ir.c: 43: eeprom_write(3, ir_turn);
   738  0492  1283               	bcf	status, 5	;RP0=0, select bank0
   739                           	
   740  0493  087A               	movf	(122),w
   741                           	
   742                           	
   743  0494  00D7               	movwf	(?_eeprom_write)
   744  0495  3003               	movlw	(03h)
   745  0496  24F5               	fcall	_eeprom_write
   746                           	line	44
   747                           ;ir.c: 44: eeprom_write(4, ir_sigh);
   748  0497  1283               	bcf	status, 5	;RP0=0, select bank0
   749                           	
   750  0498  0871               	movf	(113),w
   751                           	
   752                           	
   753  0499  00D7               	movwf	(?_eeprom_write)
   754  049A  3004               	movlw	(04h)
   755  049B  24F5               	fcall	_eeprom_write
   756                           	line	45
   757                           ;ir.c: 45: eeprom_write(5, ir_sigl);
   758  049C  1283               	bcf	status, 5	;RP0=0, select bank0
   759                           	
   760  049D  0875               	movf	(117),w
   761                           	
   762                           	
   763  049E  00D7               	movwf	(?_eeprom_write)
   764  049F  3005               	movlw	(05h)
   765  04A0  24F5               	fcall	_eeprom_write
   766                           	line	46
   767                           ;ir.c: 46: for(i = 0; i < ir_scnt; i++)
   768  04A1  1003               	clrc
   769  04A2  1283               	bcf	status, 5	;RP0=0, select bank0
   770                           	
   771  04A3  3000               	movlw	0
   772  04A4  1803               	btfsc	status,0
   773  04A5  3001               	movlw	1
   774  04A6  00D5               	movwf	(_ir_save_i)
   775  04A7  2CB6               	goto	l44
   776                           	line	47
   777                           	
   778  04A8                     l41:	
   779                           ;ir.c: 47: eeprom_write(i + 6, ir_sig[i]);
   780                           	
   781  04A8  0855               	movf	(_ir_save_i),w
   782  04A9  1383               	bcf	status, 7	;select IRP bank0
   783                           	
   784  04AA  3E41               	addlw	65&0ffh
   785  04AB  0084               	movwf	fsr
   786                           	
   787  04AC  0800               	movf	indf,w
   788                           	
   789                           	
   790  04AD  00D7               	movwf	(?_eeprom_write)
   791                           	
   792  04AE  0855               	movf	(_ir_save_i),w
   793                           	
   794  04AF  3E06               	addlw	06h
   795  04B0  24F5               	fcall	_eeprom_write
   796                           	line	46
   797  04B1  3001               	movlw	(01h)
   798  04B2  1283               	bcf	status, 5	;RP0=0, select bank0
   799  04B3  00D6               	movwf	(??_ir_save+1+0)
   800                           	
   801  04B4  0856               	movf	(??_ir_save+1+0),w
   802  04B5  07D5               	addwf	(_ir_save_i),f
   803                           	
   804  04B6                     l44:	
   805                           	
   806  04B6  0870               	movf	(112),w
   807                           	
   808                           	
   809  04B7  0255               	subwf	(_ir_save_i),w
   810  04B8  1C03               	skipc
   811  04B9  2CBB               	goto	u2781
   812  04BA  2CBC               	goto	u2780
   813  04BB                     u2781:
   814  04BB  2CA8               	goto	l41
   815  04BC                     u2780:
   816                           	
   817  04BC                     l42:	
   818                           	line	48
   819                           ;ir.c: 48: }
   820  04BC                     l40:	
   821  04BC  0008               	return
   822                           ; =============== function _ir_save ends ======
                                 =========
   823                           
   824                           GLOBAL __end_of_ir_save
   825  04BD                     	__end_of_ir_save:
   826                           	FNSIZE	_ir_save,2,0
   827                           	signat	_ir_save,88
   828                           	global	_deb_dat
   829                           	global	??_deb_dat
   830                           	global	?_deb_dat
   831                           
   832                           ; *************** function _deb_dat ***********
                                 ****
   833                           ; Defined at:
   834                           ;		line 77 in file "C:\pic\ir-remocon\scif_tx.c
                                 "
   835                           ; Parameters:
   836                           ;		d           	offs:   0	type: unsigned int 
   837                           ;		h           	offs:   2	type: unsigned char 
   838                           ; Auto variables:
   839                           ;		None
   840                           ; Return value:
   841                           ;		type: void 
   842                           ;		size: 0
   843                           ; Registers used:
   844                           ;		wreg, fsr, status,2, status,0, pclath, cstac
                                 k
   845                           ; Tracked objects:
   846                           ;		On entry : 900/0
   847                           ;		On exit  : 0/0
   848                           ;		Unchanged: 0/0
   849                           ; Data sizes:
   850                           ;		Autos:    0
   851                           ;		Params:   3
   852                           ;		Temp:     1
   853                           ;		Total:    4
   854                           ; This function calls:
   855                           ;		_puts
   856                           ;		_putui
   857                           ;		_putch
   858                           ;		_puthc
   859                           ; This function is called by:
   860                           ;		_main
   861                           ; This function uses a non-reentrant model
   862                           ; 
   863                           	psect	text162,local,class=CODE,delta=2
   864                           	file	"C:\pic\ir-remocon\scif_tx.c"
   865                           	line	77
   866                           ;scif_tx.c: 77: void deb_dat(unsigned int d, un
                                 signed char h){
   867                           	
   868  056B                     _deb_dat:	
   869                           ; Regs used in _deb_dat: [wreg+fsr+status,2+sta
                                 tus,0+pclath+cstack]
   870                           	line	78
   871                           ;scif_tx.c: 78: puts("Data No.");
   872  056B  30BD               	movlw	((STR_17-__stringbase))&0ffh
   873  056C  25AC               	fcall	_puts
   874                           	line	79
   875                           ;scif_tx.c: 79: putui(d, 2);
   876  056D  3002               	movlw	(02h)
   877  056E  1283               	bcf	status, 5	;RP0=0, select bank0
   878  056F  00D8               	movwf	(??_deb_dat+0+0)
   879                           	
   880  0570  0858               	movf	(??_deb_dat+0+0),w
   881  0571  00DB               	movwf	(0+?_putui+02h)&07fh
   882                           	
   883                           	
   884  0572  0855               	movf	(_deb_dat_d),w
   885  0573  01D9               	clrf	(?_putui)
   886  0574  07D9               	addwf	(?_putui)
   887  0575  0856               	movf	(_deb_dat_d+1),w
   888  0576  01DA               	clrf	(?_putui+1)
   889  0577  07DA               	addwf	(?_putui+1)
   890  0578  2300               	fcall	_putui
   891                           	line	80
   892                           ;scif_tx.c: 80: putch('=');
   893  0579  303D               	movlw	(03Dh)
   894  057A  2525               	fcall	_putch
   895                           	line	81
   896                           ;scif_tx.c: 81: puthc(h);
   897  057B  1283               	bcf	status, 5	;RP0=0, select bank0
   898                           	
   899  057C  0857               	movf	(_deb_dat_h),w
   900  057D  1383               	bcf	status, 7	;select IRP bank0
   901                           	
   902  057E  2597               	fcall	_puthc
   903                           	line	82
   904                           ;scif_tx.c: 82: putch('\n');
   905  057F  300A               	movlw	(0Ah)
   906  0580  2525               	fcall	_putch
   907                           	line	83
   908                           ;scif_tx.c: 83: }
   909  0581                     l38:	
   910  0581  0008               	return
   911                           ; =============== function _deb_dat ends ======
                                 =========
   912                           
   913                           GLOBAL __end_of_deb_dat
   914  0582                     	__end_of_deb_dat:
   915                           	FNSIZE	_deb_dat,1,3
   916                           	signat	_deb_dat,8312
   917                           	global	_ir_control
   918                           	global	??_ir_control
   919                           	global	?_ir_control
   920                           
   921                           ; *************** function _ir_control ********
                                 *******
   922                           ; Defined at:
   923                           ;		line 76 in file "C:\pic\ir-remocon\ir.c"
   924                           ; Parameters:
   925                           ;		None
   926                           ; Auto variables:
   927                           ;		i           	       	type: unsigned char 
   928                           ;		b           	       	type: unsigned char 
   929                           ; Return value:
   930                           ;		type: void 
   931                           ;		size: 0
   932                           ; Registers used:
   933                           ;		wreg, fsr, status,2, status,0, pclath, cstac
                                 k
   934                           ; Tracked objects:
   935                           ;		On entry : 0/0
   936                           ;		On exit  : 0/0
   937                           ;		Unchanged: 0/0
   938                           ; Data sizes:
   939                           ;		Autos:    2
   940                           ;		Params:   0
   941                           ;		Temp:     1
   942                           ;		Total:    3
   943                           ; This function calls:
   944                           ;		_ir_shot
   945                           ; This function is called by:
   946                           ;		_main
   947                           ; This function uses a non-reentrant model
   948                           ; 
   949                           	psect	text163,local,class=CODE,delta=2
   950                           	file	"C:\pic\ir-remocon\ir.c"
   951                           	line	76
   952                           ;ir.c: 76: void ir_control(void){
   953                           	
   954  0366                     _ir_control:	
   955                           ; Regs used in _ir_control: [wreg+fsr+status,2+
                                 status,0+pclath+cstack]
   956                           	line	81
   957                           ;ir.c: 77: unsigned char i;
   958                           ;ir.c: 78: unsigned char b;
   959                           ;ir.c: 81: OPTION = 0b00000110;
   960  0366  3006               	movlw	(06h)
   961  0367  1683               	bsf	status, 5	;RP0=1, select bank1
   962                           	
   963  0368  0081               	movwf	(129)^080h
   964                           	line	82
   965                           ;ir.c: 82: ir_shot(ir_ldrh);
   966  0369  1283               	bcf	status, 5	;RP0=0, select bank0
   967                           	
   968  036A  0872               	movf	(114),w
   969                           	
   970  036B  244B               	fcall	_ir_shot
   971                           	line	83
   972                           ;ir.c: 83: while(TMR0 < ir_ldrl);
   973  036C  2B6D               	goto	l59
   974                           	
   975  036D                     l59:	
   976  036D  1283               	bcf	status, 5	;RP0=0, select bank0
   977                           	
   978  036E  0840               	movf	(64),w
   979                           	
   980                           	
   981  036F  0201               	subwf	(1),w	;volatile
   982  0370  1C03               	skipc
   983  0371  2B73               	goto	u2791
   984  0372  2B74               	goto	u2790
   985  0373                     u2791:
   986  0373  2B6D               	goto	l59
   987  0374                     u2790:
   988                           	
   989  0374                     l61:	
   990                           	line	86
   991                           ;ir.c: 86: OPTION = 0b00000011;
   992  0374  3003               	movlw	(03h)
   993  0375  1683               	bsf	status, 5	;RP0=1, select bank1
   994                           	
   995  0376  0081               	movwf	(129)^080h
   996                           	line	87
   997                           ;ir.c: 87: for(i = 0; i < ir_scnt; i++){
   998  0377  1003               	clrc
   999  0378  1283               	bcf	status, 5	;RP0=0, select bank0
  1000                           	
  1001  0379  3000               	movlw	0
  1002  037A  1803               	btfsc	status,0
  1003  037B  3001               	movlw	1
  1004  037C  00D6               	movwf	(_ir_control_i)
  1005  037D  2BB7               	goto	l65
  1006                           	
  1007  037E                     l62:	
  1008                           	line	88
  1009                           ;ir.c: 88: for(b = 0; b < 8; b++){
  1010  037E  1003               	clrc
  1011                           	
  1012  037F  3000               	movlw	0
  1013  0380  1803               	btfsc	status,0
  1014  0381  3001               	movlw	1
  1015  0382  00D5               	movwf	(_ir_control_b)
  1016  0383  2B84               	goto	l66
  1017                           	
  1018  0384                     l66:	
  1019                           	line	89
  1020                           ;ir.c: 89: ir_shot(ir_turn);
  1021                           	
  1022  0384  087A               	movf	(122),w
  1023                           	
  1024  0385  244B               	fcall	_ir_shot
  1025                           	line	90
  1026                           ;ir.c: 90: if((ir_sig[i] & (0x80 >> b)) > 0){
  1027  0386  1283               	bcf	status, 5	;RP0=0, select bank0
  1028                           	
  1029  0387  0856               	movf	(_ir_control_i),w
  1030  0388  1383               	bcf	status, 7	;select IRP bank0
  1031                           	
  1032  0389  3E41               	addlw	65&0ffh
  1033  038A  0084               	movwf	fsr
  1034                           	
  1035  038B  3080               	movlw	(080h)
  1036  038C  00D7               	movwf	(??_ir_control+2+0)
  1037                           	
  1038  038D  0A55               	incf	(_ir_control_b),w
  1039  038E  2B91               	goto	u2814
  1040  038F                     u2815:
  1041  038F  1003               	clrc
  1042  0390  0CD7               	rrf	(??_ir_control+2+0),f
  1043  0391                     u2814:
  1044  0391  3EFF               	addlw	-1
  1045  0392  1D03               	skipz
  1046  0393  2B8F               	goto	u2815
  1047  0394  0857               	movf	0+(??_ir_control+2+0),w
  1048                           	
  1049  0395  0500               	andwf	indf,w
  1050  0396  1903               	btfsc	status,2
  1051  0397  2B99               	goto	u2821
  1052  0398  2B9A               	goto	u2820
  1053  0399                     u2821:
  1054  0399  2BA2               	goto	l69
  1055  039A                     u2820:
  1056                           	line	91
  1057                           ;ir.c: 91: while(TMR0 < ir_sigh);
  1058  039A  2B9B               	goto	l70
  1059                           	
  1060  039B                     l70:	
  1061                           	
  1062  039B  0871               	movf	(113),w
  1063                           	
  1064                           	
  1065  039C  0201               	subwf	(1),w	;volatile
  1066  039D  1C03               	skipc
  1067  039E  2BA0               	goto	u2831
  1068  039F  2BA1               	goto	u2830
  1069  03A0                     u2831:
  1070  03A0  2B9B               	goto	l70
  1071  03A1                     u2830:
  1072                           	
  1073  03A1                     l72:	
  1074                           	line	92
  1075                           ;ir.c: 92: } else {
  1076  03A1  2BA9               	goto	l73
  1077                           	
  1078  03A2                     l69:	
  1079                           	line	93
  1080                           ;ir.c: 93: while(TMR0 < ir_sigl);
  1081  03A2  2BA3               	goto	l74
  1082                           	
  1083  03A3                     l74:	
  1084                           	
  1085  03A3  0875               	movf	(117),w
  1086                           	
  1087                           	
  1088  03A4  0201               	subwf	(1),w	;volatile
  1089  03A5  1C03               	skipc
  1090  03A6  2BA8               	goto	u2841
  1091  03A7  2BA9               	goto	u2840
  1092  03A8                     u2841:
  1093  03A8  2BA3               	goto	l74
  1094  03A9                     u2840:
  1095                           	
  1096  03A9                     l76:	
  1097                           	line	94
  1098                           	
  1099  03A9                     l73:	
  1100                           	line	88
  1101  03A9  3001               	movlw	(01h)
  1102  03AA  00D7               	movwf	(??_ir_control+2+0)
  1103                           	
  1104  03AB  0857               	movf	(??_ir_control+2+0),w
  1105  03AC  07D5               	addwf	(_ir_control_b),f
  1106  03AD  3008               	movlw	(08h)
  1107                           	
  1108  03AE  0255               	subwf	(_ir_control_b),w
  1109  03AF  1C03               	skipc
  1110  03B0  2BB2               	goto	u2851
  1111  03B1  2BB3               	goto	u2850
  1112  03B2                     u2851:
  1113  03B2  2B84               	goto	l66
  1114  03B3                     u2850:
  1115                           	
  1116  03B3                     l67:	
  1117                           	line	87
  1118  03B3  3001               	movlw	(01h)
  1119  03B4  00D7               	movwf	(??_ir_control+2+0)
  1120                           	
  1121  03B5  0857               	movf	(??_ir_control+2+0),w
  1122  03B6  07D6               	addwf	(_ir_control_i),f
  1123                           	
  1124  03B7                     l65:	
  1125                           	
  1126  03B7  0870               	movf	(112),w
  1127                           	
  1128                           	
  1129  03B8  0256               	subwf	(_ir_control_i),w
  1130  03B9  1C03               	skipc
  1131  03BA  2BBC               	goto	u2861
  1132  03BB  2BBD               	goto	u2860
  1133  03BC                     u2861:
  1134  03BC  2B7E               	goto	l62
  1135  03BD                     u2860:
  1136                           	
  1137  03BD                     l63:	
  1138                           	line	97
  1139                           ;ir.c: 94: }
  1140                           ;ir.c: 95: }
  1141                           ;ir.c: 96: }
  1142                           ;ir.c: 97: ir_shot(ir_turn);
  1143                           	
  1144  03BD  087A               	movf	(122),w
  1145                           	
  1146  03BE  244B               	fcall	_ir_shot
  1147                           	line	98
  1148                           ;ir.c: 98: }
  1149  03BF                     l58:	
  1150  03BF  0008               	return
  1151                           ; =============== function _ir_control ends ===
                                 ============
  1152                           
  1153                           GLOBAL __end_of_ir_control
  1154  03C0                     	__end_of_ir_control:
  1155                           	FNSIZE	_ir_control,3,0
  1156                           	signat	_ir_control,88
  1157                           	global	_ir_load
  1158                           	global	??_ir_load
  1159                           	global	?_ir_load
  1160                           
  1161                           ; *************** function _ir_load ***********
                                 ****
  1162                           ; Defined at:
  1163                           ;		line 50 in file "C:\pic\ir-remocon\ir.c"
  1164                           ; Parameters:
  1165                           ;		None
  1166                           ; Auto variables:
  1167                           ;		i           	       	type: unsigned char 
  1168                           ; Return value:
  1169                           ;		type: void 
  1170                           ;		size: 0
  1171                           ; Registers used:
  1172                           ;		wreg, fsr, status,2, status,0, pclath, cstac
                                 k
  1173                           ; Tracked objects:
  1174                           ;		On entry : 100/0
  1175                           ;		On exit  : 0/0
  1176                           ;		Unchanged: 0/0
  1177                           ; Data sizes:
  1178                           ;		Autos:    1
  1179                           ;		Params:   0
  1180                           ;		Temp:     1
  1181                           ;		Total:    2
  1182                           ; This function calls:
  1183                           ;		_eeprom_read
  1184                           ; This function is called by:
  1185                           ;		_main
  1186                           ; This function uses a non-reentrant model
  1187                           ; 
  1188                           	psect	text164,local,class=CODE,delta=2
  1189                           	file	"C:\pic\ir-remocon\ir.c"
  1190                           	line	50
  1191                           ;ir.c: 50: void ir_load(void){
  1192                           	
  1193  040A                     _ir_load:	
  1194                           ; Regs used in _ir_load: [wreg+fsr+status,2+sta
                                 tus,0+pclath+cstack]
  1195                           	line	53
  1196                           ;ir.c: 51: unsigned char i;
  1197                           ;ir.c: 53: ir_scnt = eeprom_read(0);
  1198  040A  3000               	movlw	(0)
  1199  040B  2552               	fcall	_eeprom_read
  1200  040C  1283               	bcf	status, 5	;RP0=0, select bank0
  1201  040D  00D6               	movwf	(??_ir_load+1+0)
  1202                           	
  1203  040E  0856               	movf	(??_ir_load+1+0),w
  1204  040F  00F0               	movwf	(112)
  1205                           	line	54
  1206                           ;ir.c: 54: ir_ldrh = eeprom_read(1);
  1207  0410  3001               	movlw	(01h)
  1208  0411  2552               	fcall	_eeprom_read
  1209  0412  1283               	bcf	status, 5	;RP0=0, select bank0
  1210  0413  00D6               	movwf	(??_ir_load+1+0)
  1211                           	
  1212  0414  0856               	movf	(??_ir_load+1+0),w
  1213  0415  00F2               	movwf	(114)
  1214                           	line	55
  1215                           ;ir.c: 55: ir_ldrl = eeprom_read(2);
  1216  0416  3002               	movlw	(02h)
  1217  0417  2552               	fcall	_eeprom_read
  1218  0418  1283               	bcf	status, 5	;RP0=0, select bank0
  1219  0419  00D6               	movwf	(??_ir_load+1+0)
  1220                           	
  1221  041A  0856               	movf	(??_ir_load+1+0),w
  1222  041B  00C0               	movwf	(64)
  1223                           	line	56
  1224                           ;ir.c: 56: ir_turn = eeprom_read(3);
  1225  041C  3003               	movlw	(03h)
  1226  041D  2552               	fcall	_eeprom_read
  1227  041E  1283               	bcf	status, 5	;RP0=0, select bank0
  1228  041F  00D6               	movwf	(??_ir_load+1+0)
  1229                           	
  1230  0420  0856               	movf	(??_ir_load+1+0),w
  1231  0421  00FA               	movwf	(122)
  1232                           	line	57
  1233                           ;ir.c: 57: ir_sigh = eeprom_read(4);
  1234  0422  3004               	movlw	(04h)
  1235  0423  2552               	fcall	_eeprom_read
  1236  0424  1283               	bcf	status, 5	;RP0=0, select bank0
  1237  0425  00D6               	movwf	(??_ir_load+1+0)
  1238                           	
  1239  0426  0856               	movf	(??_ir_load+1+0),w
  1240  0427  00F1               	movwf	(113)
  1241                           	line	58
  1242                           ;ir.c: 58: ir_sigl = eeprom_read(5);
  1243  0428  3005               	movlw	(05h)
  1244  0429  2552               	fcall	_eeprom_read
  1245  042A  1283               	bcf	status, 5	;RP0=0, select bank0
  1246  042B  00D6               	movwf	(??_ir_load+1+0)
  1247                           	
  1248  042C  0856               	movf	(??_ir_load+1+0),w
  1249  042D  00F5               	movwf	(117)
  1250                           	line	59
  1251                           ;ir.c: 59: for(i = 0; i < ir_scnt; i++)
  1252  042E  1003               	clrc
  1253                           	
  1254  042F  3000               	movlw	0
  1255  0430  1803               	btfsc	status,0
  1256  0431  3001               	movlw	1
  1257  0432  00D5               	movwf	(_ir_load_i)
  1258  0433  2C44               	goto	l49
  1259                           	line	60
  1260                           	
  1261  0434                     l46:	
  1262                           ;ir.c: 60: ir_sig[i] = eeprom_read(i + 6);
  1263                           	
  1264  0434  0855               	movf	(_ir_load_i),w
  1265  0435  1383               	bcf	status, 7	;select IRP bank0
  1266                           	
  1267  0436  3E06               	addlw	06h
  1268  0437  2552               	fcall	_eeprom_read
  1269  0438  1283               	bcf	status, 5	;RP0=0, select bank0
  1270  0439  00D6               	movwf	(??_ir_load+1+0)
  1271                           	
  1272  043A  0855               	movf	(_ir_load_i),w
  1273  043B  1383               	bcf	status, 7	;select IRP bank0
  1274                           	
  1275  043C  3E41               	addlw	65&0ffh
  1276  043D  0084               	movwf	fsr
  1277                           	
  1278  043E  0856               	movf	(??_ir_load+1+0),w
  1279  043F  0080               	movwf	indf
  1280                           	line	59
  1281  0440  3001               	movlw	(01h)
  1282  0441  00D6               	movwf	(??_ir_load+1+0)
  1283                           	
  1284  0442  0856               	movf	(??_ir_load+1+0),w
  1285  0443  07D5               	addwf	(_ir_load_i),f
  1286                           	
  1287  0444                     l49:	
  1288                           	
  1289  0444  0870               	movf	(112),w
  1290                           	
  1291                           	
  1292  0445  0255               	subwf	(_ir_load_i),w
  1293  0446  1C03               	skipc
  1294  0447  2C49               	goto	u2871
  1295  0448  2C4A               	goto	u2870
  1296  0449                     u2871:
  1297  0449  2C34               	goto	l46
  1298  044A                     u2870:
  1299                           	
  1300  044A                     l47:	
  1301                           	line	61
  1302                           ;ir.c: 61: }
  1303  044A                     l45:	
  1304  044A  0008               	return
  1305                           ; =============== function _ir_load ends ======
                                 =========
  1306                           
  1307                           GLOBAL __end_of_ir_load
  1308  044B                     	__end_of_ir_load:
  1309                           	FNSIZE	_ir_load,2,0
  1310                           	signat	_ir_load,88
  1311                           	global	_ir_analize
  1312                           	global	??_ir_analize
  1313                           	global	?_ir_analize
  1314                           
  1315                           ; *************** function _ir_analize ********
                                 *******
  1316                           ; Defined at:
  1317                           ;		line 100 in file "C:\pic\ir-remocon\ir.c"
  1318                           ; Parameters:
  1319                           ;		None
  1320                           ; Auto variables:
  1321                           ;		b           	       	type: unsigned char 
  1322                           ;		i           	       	type: unsigned char 
  1323                           ;		sp          	       	type: unsigned char 
  1324                           ; Return value:
  1325                           ;		type: void 
  1326                           ;		size: 0
  1327                           ; Registers used:
  1328                           ;		wreg, fsr, status,2, status,0
  1329                           ; Tracked objects:
  1330                           ;		On entry : 0/0
  1331                           ;		On exit  : 0/0
  1332                           ;		Unchanged: 0/0
  1333                           ; Data sizes:
  1334                           ;		Autos:    3
  1335                           ;		Params:   0
  1336                           ;		Temp:     4
  1337                           ;		Total:    7
  1338                           ; This function calls:
  1339                           ;		Nothing
  1340                           ; This function is called by:
  1341                           ;		_main
  1342                           ; This function uses a non-reentrant model
  1343                           ; 
  1344                           	psect	text165,local,class=CODE,delta=2
  1345                           	file	"C:\pic\ir-remocon\ir.c"
  1346                           	line	100
  1347                           ;ir.c: 100: void ir_analize(void){
  1348                           	
  1349  01E2                     _ir_analize:	
  1350                           ; Regs used in _ir_analize: [wreg+fsr+status,2+
                                 status,0]
  1351                           	line	104
  1352                           ;ir.c: 101: unsigned char i, b;
  1353                           ;ir.c: 102: unsigned char sp;
  1354                           ;ir.c: 104: tl = 0; ts = 255;
  1355  01E2  1003               	clrc
  1356  01E3  1283               	bcf	status, 5	;RP0=0, select bank0
  1357                           	
  1358  01E4  3000               	movlw	0
  1359  01E5  1803               	btfsc	status,0
  1360  01E6  3001               	movlw	1
  1361  01E7  00F7               	movwf	(119)
  1362                           	
  1363  01E8  01F8               	clrf	(120)
  1364  01E9  03F8               	decf	(120),f
  1365                           	line	105
  1366                           ;ir.c: 105: hl = 0; hs = 255;
  1367  01EA  1003               	clrc
  1368                           	
  1369  01EB  3000               	movlw	0
  1370  01EC  1803               	btfsc	status,0
  1371  01ED  3001               	movlw	1
  1372  01EE  00F3               	movwf	(115)
  1373                           	
  1374  01EF  01F4               	clrf	(116)
  1375  01F0  03F4               	decf	(116),f
  1376                           	line	106
  1377                           ;ir.c: 106: ll = 0; ls = 255;
  1378  01F1  1003               	clrc
  1379                           	
  1380  01F2  3000               	movlw	0
  1381  01F3  1803               	btfsc	status,0
  1382  01F4  3001               	movlw	1
  1383  01F5  00FB               	movwf	(123)
  1384                           	
  1385  01F6  01FC               	clrf	(124)
  1386  01F7  03FC               	decf	(124),f
  1387                           	line	108
  1388                           ;ir.c: 108: OPTION = 0b00000110;
  1389  01F8  3006               	movlw	(06h)
  1390  01F9  1683               	bsf	status, 5	;RP0=1, select bank1
  1391                           	
  1392  01FA  0081               	movwf	(129)^080h
  1393                           	line	109
  1394                           ;ir.c: 109: TMR0 = 0;
  1395  01FB  1003               	clrc
  1396  01FC  1283               	bcf	status, 5	;RP0=0, select bank0
  1397                           	
  1398  01FD  3000               	movlw	0
  1399  01FE  1803               	btfsc	status,0
  1400  01FF  3001               	movlw	1
  1401  0200  0081               	movwf	(1)	;volatile
  1402                           	line	110
  1403                           ;ir.c: 110: while(TMR0 < 40) if(GPIO0) TMR0 = 0
                                 ;
  1404  0201  2A0B               	goto	l78
  1405                           	
  1406  0202                     l79:	
  1407  0202  1C05               	btfss	(40/8),(40)&7
  1408  0203  2A05               	goto	u2881
  1409  0204  2A06               	goto	u2880
  1410  0205                     u2881:
  1411  0205  2A0B               	goto	l78
  1412  0206                     u2880:
  1413  0206  1003               	clrc
  1414                           	
  1415  0207  3000               	movlw	0
  1416  0208  1803               	btfsc	status,0
  1417  0209  3001               	movlw	1
  1418  020A  0081               	movwf	(1)	;volatile
  1419                           	
  1420  020B                     l81:	
  1421                           	line	111
  1422                           	
  1423  020B                     l78:	
  1424                           	line	110
  1425  020B  3028               	movlw	(028h)
  1426                           	
  1427  020C  0201               	subwf	(1),w	;volatile
  1428  020D  1C03               	skipc
  1429  020E  2A10               	goto	u2891
  1430  020F  2A11               	goto	u2890
  1431  0210                     u2891:
  1432  0210  2A02               	goto	l79
  1433  0211                     u2890:
  1434                           	
  1435  0211                     l80:	
  1436                           	line	111
  1437                           ;ir.c: 111: while(GPIO0 == 0);
  1438  0211  2A12               	goto	l82
  1439                           	
  1440  0212                     l82:	
  1441  0212  1C05               	btfss	(40/8),(40)&7
  1442  0213  2A15               	goto	u2901
  1443  0214  2A16               	goto	u2900
  1444  0215                     u2901:
  1445  0215  2A12               	goto	l82
  1446  0216                     u2900:
  1447                           	
  1448  0216                     l84:	
  1449                           	line	112
  1450                           ;ir.c: 112: ir_ldrh = TMR0;
  1451                           	
  1452  0216  0801               	movf	(1),w	;volatile
  1453                           	
  1454  0217  00D8               	movwf	(??_ir_analize+3+0)
  1455                           	
  1456  0218  0858               	movf	(??_ir_analize+3+0),w
  1457  0219  00F2               	movwf	(114)
  1458                           	line	114
  1459                           ;ir.c: 114: TMR0 = 0;
  1460  021A  1003               	clrc
  1461                           	
  1462  021B  3000               	movlw	0
  1463  021C  1803               	btfsc	status,0
  1464  021D  3001               	movlw	1
  1465  021E  0081               	movwf	(1)	;volatile
  1466                           	line	115
  1467                           ;ir.c: 115: while(GPIO0);
  1468  021F  2A20               	goto	l85
  1469                           	
  1470  0220                     l85:	
  1471  0220  1805               	btfsc	(40/8),(40)&7
  1472  0221  2A23               	goto	u2911
  1473  0222  2A24               	goto	u2910
  1474  0223                     u2911:
  1475  0223  2A20               	goto	l85
  1476  0224                     u2910:
  1477                           	
  1478  0224                     l87:	
  1479                           	line	116
  1480                           ;ir.c: 116: ir_ldrl = TMR0;
  1481                           	
  1482  0224  0801               	movf	(1),w	;volatile
  1483                           	
  1484  0225  00D8               	movwf	(??_ir_analize+3+0)
  1485                           	
  1486  0226  0858               	movf	(??_ir_analize+3+0),w
  1487  0227  00C0               	movwf	(64)
  1488                           	line	118
  1489                           ;ir.c: 118: OPTION = 0b00000011;
  1490  0228  3003               	movlw	(03h)
  1491  0229  1683               	bsf	status, 5	;RP0=1, select bank1
  1492                           	
  1493  022A  0081               	movwf	(129)^080h
  1494                           	line	119
  1495                           ;ir.c: 119: for(i = 0; i < 16; i++){
  1496  022B  1003               	clrc
  1497  022C  1283               	bcf	status, 5	;RP0=0, select bank0
  1498                           	
  1499  022D  3000               	movlw	0
  1500  022E  1803               	btfsc	status,0
  1501  022F  3001               	movlw	1
  1502  0230  00D6               	movwf	(_ir_analize_i)
  1503  0231  2A32               	goto	l88
  1504                           	
  1505  0232                     l88:	
  1506                           	line	120
  1507                           ;ir.c: 120: for(b = 0; b < 8; b++){
  1508  0232  1003               	clrc
  1509                           	
  1510  0233  3000               	movlw	0
  1511  0234  1803               	btfsc	status,0
  1512  0235  3001               	movlw	1
  1513  0236  00D5               	movwf	(_ir_analize_b)
  1514  0237  2A38               	goto	l91
  1515                           	
  1516  0238                     l91:	
  1517                           	line	121
  1518                           ;ir.c: 121: TMR0 = 0;
  1519  0238  1003               	clrc
  1520                           	
  1521  0239  3000               	movlw	0
  1522  023A  1803               	btfsc	status,0
  1523  023B  3001               	movlw	1
  1524  023C  0081               	movwf	(1)	;volatile
  1525                           	line	122
  1526                           ;ir.c: 122: while(GPIO0 == 0);
  1527  023D  2A3E               	goto	l94
  1528                           	
  1529  023E                     l94:	
  1530  023E  1C05               	btfss	(40/8),(40)&7
  1531  023F  2A41               	goto	u2941
  1532  0240  2A42               	goto	u2940
  1533  0241                     u2941:
  1534  0241  2A3E               	goto	l94
  1535  0242                     u2940:
  1536                           	
  1537  0242                     l96:	
  1538                           	line	123
  1539                           ;ir.c: 123: ir_turn = TMR0;
  1540                           	
  1541  0242  0801               	movf	(1),w	;volatile
  1542                           	
  1543  0243  00D8               	movwf	(??_ir_analize+3+0)
  1544                           	
  1545  0244  0858               	movf	(??_ir_analize+3+0),w
  1546  0245  00FA               	movwf	(122)
  1547                           	line	124
  1548                           ;ir.c: 124: TMR0 = 0;
  1549  0246  1003               	clrc
  1550                           	
  1551  0247  3000               	movlw	0
  1552  0248  1803               	btfsc	status,0
  1553  0249  3001               	movlw	1
  1554  024A  0081               	movwf	(1)	;volatile
  1555                           	line	125
  1556                           ;ir.c: 125: if(ir_turn > tl) tl = ir_turn;
  1557                           	
  1558  024B  087A               	movf	(122),w
  1559                           	
  1560                           	
  1561  024C  0277               	subwf	(119),w
  1562  024D  1803               	skipnc
  1563  024E  2A50               	goto	u2951
  1564  024F  2A51               	goto	u2950
  1565  0250                     u2951:
  1566  0250  2A56               	goto	l97
  1567  0251                     u2950:
  1568                           	
  1569  0251  087A               	movf	(122),w
  1570                           	
  1571  0252  00D8               	movwf	(??_ir_analize+3+0)
  1572                           	
  1573  0253  0858               	movf	(??_ir_analize+3+0),w
  1574  0254  00F7               	movwf	(119)
  1575  0255  2A60               	goto	l98
  1576                           	line	126
  1577                           	
  1578  0256                     l97:	
  1579                           ;ir.c: 126: else if(ir_turn < ts) ts = ir_turn;
  1580                           	
  1581  0256  0878               	movf	(120),w
  1582                           	
  1583                           	
  1584  0257  027A               	subwf	(122),w
  1585  0258  1803               	skipnc
  1586  0259  2A5B               	goto	u2961
  1587  025A  2A5C               	goto	u2960
  1588  025B                     u2961:
  1589  025B  2A60               	goto	l98
  1590  025C                     u2960:
  1591                           	
  1592  025C  087A               	movf	(122),w
  1593                           	
  1594  025D  00D8               	movwf	(??_ir_analize+3+0)
  1595                           	
  1596  025E  0858               	movf	(??_ir_analize+3+0),w
  1597  025F  00F8               	movwf	(120)
  1598                           	
  1599  0260                     l99:	
  1600                           	line	128
  1601                           	
  1602  0260                     l98:	
  1603                           ;ir.c: 128: while(GPIO0 && (TMR0 < 240));
  1604  0260  2A61               	goto	l100
  1605                           	
  1606  0261                     l100:	
  1607  0261  1C05               	btfss	(40/8),(40)&7
  1608  0262  2A64               	goto	u2971
  1609  0263  2A65               	goto	u2970
  1610  0264                     u2971:
  1611  0264  2A6B               	goto	l102
  1612  0265                     u2970:
  1613  0265  30F0               	movlw	(0F0h)
  1614                           	
  1615  0266  0201               	subwf	(1),w	;volatile
  1616  0267  1C03               	skipc
  1617  0268  2A6A               	goto	u2981
  1618  0269  2A6B               	goto	u2980
  1619  026A                     u2981:
  1620  026A  2A61               	goto	l100
  1621  026B                     u2980:
  1622                           	
  1623  026B                     l600000742:	
  1624                           	
  1625  026B                     l102:	
  1626                           	line	129
  1627                           ;ir.c: 129: sp = TMR0;
  1628                           	
  1629  026B  0801               	movf	(1),w	;volatile
  1630                           	
  1631                           	
  1632  026C  00D7               	movwf	(_ir_analize_sp)
  1633                           	line	130
  1634                           ;ir.c: 130: if(sp >= 240) break;
  1635  026D  30F0               	movlw	(0F0h)
  1636                           	
  1637  026E  0257               	subwf	(_ir_analize_sp),w
  1638  026F  1C03               	skipc
  1639  0270  2A72               	goto	u2991
  1640  0271  2A73               	goto	u2990
  1641  0272                     u2991:
  1642  0272  2A74               	goto	l103
  1643  0273                     u2990:
  1644  0273  2AB9               	goto	l92
  1645                           	
  1646  0274                     l103:	
  1647                           	line	131
  1648                           ;ir.c: 131: ir_sig[i] <<= 1;
  1649                           	
  1650  0274  0856               	movf	(_ir_analize_i),w
  1651  0275  1383               	bcf	status, 7	;select IRP bank0
  1652                           	
  1653  0276  3E41               	addlw	65&0ffh
  1654  0277  0084               	movwf	fsr
  1655                           	
  1656  0278  1003               	clrc
  1657  0279  0D80               	rlf	indf,f
  1658                           
  1659                           	line	132
  1660                           ;ir.c: 132: if(sp > 100){
  1661  027A  3065               	movlw	(065h)
  1662                           	
  1663  027B  0257               	subwf	(_ir_analize_sp),w
  1664  027C  1C03               	skipc
  1665  027D  2A7F               	goto	u3001
  1666  027E  2A80               	goto	u3000
  1667  027F                     u3001:
  1668  027F  2A9A               	goto	l104
  1669  0280                     u3000:
  1670                           	line	133
  1671                           ;ir.c: 133: ir_sig[i] |= 1;
  1672                           	
  1673  0280  0856               	movf	(_ir_analize_i),w
  1674                           	
  1675  0281  3E41               	addlw	65&0ffh
  1676  0282  0084               	movwf	fsr
  1677                           	
  1678  0283  1400               	bsf	indf+(0/8),(0)&7
  1679                           	line	134
  1680                           ;ir.c: 134: if(sp > hl) hl = sp;
  1681                           	
  1682  0284  0857               	movf	(_ir_analize_sp),w
  1683                           	
  1684                           	
  1685  0285  0273               	subwf	(115),w
  1686  0286  1803               	skipnc
  1687  0287  2A89               	goto	u3011
  1688  0288  2A8A               	goto	u3010
  1689  0289                     u3011:
  1690  0289  2A8F               	goto	l105
  1691  028A                     u3010:
  1692                           	
  1693  028A  0857               	movf	(_ir_analize_sp),w
  1694                           	
  1695  028B  00D8               	movwf	(??_ir_analize+3+0)
  1696                           	
  1697  028C  0858               	movf	(??_ir_analize+3+0),w
  1698  028D  00F3               	movwf	(115)
  1699  028E  2A99               	goto	l106
  1700                           	line	135
  1701                           	
  1702  028F                     l105:	
  1703                           ;ir.c: 135: else if(sp < hs) hs = sp;
  1704                           	
  1705  028F  0874               	movf	(116),w
  1706                           	
  1707                           	
  1708  0290  0257               	subwf	(_ir_analize_sp),w
  1709  0291  1803               	skipnc
  1710  0292  2A94               	goto	u3021
  1711  0293  2A95               	goto	u3020
  1712  0294                     u3021:
  1713  0294  2A99               	goto	l106
  1714  0295                     u3020:
  1715                           	
  1716  0295  0857               	movf	(_ir_analize_sp),w
  1717                           	
  1718  0296  00D8               	movwf	(??_ir_analize+3+0)
  1719                           	
  1720  0297  0858               	movf	(??_ir_analize+3+0),w
  1721  0298  00F4               	movwf	(116)
  1722                           	
  1723  0299                     l107:	
  1724                           	line	136
  1725                           	
  1726  0299                     l106:	
  1727                           ;ir.c: 136: } else {
  1728  0299  2AAF               	goto	l108
  1729                           	
  1730  029A                     l104:	
  1731                           	line	137
  1732                           ;ir.c: 137: if(sp > ll) ll = sp;
  1733                           	
  1734  029A  0857               	movf	(_ir_analize_sp),w
  1735                           	
  1736                           	
  1737  029B  027B               	subwf	(123),w
  1738  029C  1803               	skipnc
  1739  029D  2A9F               	goto	u3031
  1740  029E  2AA0               	goto	u3030
  1741  029F                     u3031:
  1742  029F  2AA5               	goto	l109
  1743  02A0                     u3030:
  1744                           	
  1745  02A0  0857               	movf	(_ir_analize_sp),w
  1746                           	
  1747  02A1  00D8               	movwf	(??_ir_analize+3+0)
  1748                           	
  1749  02A2  0858               	movf	(??_ir_analize+3+0),w
  1750  02A3  00FB               	movwf	(123)
  1751  02A4  2AAF               	goto	l108
  1752                           	line	138
  1753                           	
  1754  02A5                     l109:	
  1755                           ;ir.c: 138: else if(sp < ls) ls = sp;
  1756                           	
  1757  02A5  087C               	movf	(124),w
  1758                           	
  1759                           	
  1760  02A6  0257               	subwf	(_ir_analize_sp),w
  1761  02A7  1803               	skipnc
  1762  02A8  2AAA               	goto	u3041
  1763  02A9  2AAB               	goto	u3040
  1764  02AA                     u3041:
  1765  02AA  2AAF               	goto	l108
  1766  02AB                     u3040:
  1767                           	
  1768  02AB  0857               	movf	(_ir_analize_sp),w
  1769                           	
  1770  02AC  00D8               	movwf	(??_ir_analize+3+0)
  1771                           	
  1772  02AD  0858               	movf	(??_ir_analize+3+0),w
  1773  02AE  00FC               	movwf	(124)
  1774                           	
  1775  02AF                     l111:	
  1776                           	line	139
  1777                           	
  1778  02AF                     l110:	
  1779                           	
  1780  02AF                     l108:	
  1781                           	line	120
  1782  02AF  3001               	movlw	(01h)
  1783  02B0  00D8               	movwf	(??_ir_analize+3+0)
  1784                           	
  1785  02B1  0858               	movf	(??_ir_analize+3+0),w
  1786  02B2  07D5               	addwf	(_ir_analize_b),f
  1787  02B3  3008               	movlw	(08h)
  1788                           	
  1789  02B4  0255               	subwf	(_ir_analize_b),w
  1790  02B5  1C03               	skipc
  1791  02B6  2AB8               	goto	u3051
  1792  02B7  2AB9               	goto	u3050
  1793  02B8                     u3051:
  1794  02B8  2A38               	goto	l91
  1795  02B9                     u3050:
  1796                           	
  1797  02B9                     l92:	
  1798                           	line	141
  1799                           ;ir.c: 139: }
  1800                           ;ir.c: 140: }
  1801                           ;ir.c: 141: if(sp >= 240) break;
  1802  02B9  30F0               	movlw	(0F0h)
  1803                           	
  1804  02BA  0257               	subwf	(_ir_analize_sp),w
  1805  02BB  1C03               	skipc
  1806  02BC  2ABE               	goto	u3061
  1807  02BD  2ABF               	goto	u3060
  1808  02BE                     u3061:
  1809  02BE  2AC0               	goto	l112
  1810  02BF                     u3060:
  1811  02BF  2ACA               	goto	l89
  1812                           	
  1813  02C0                     l112:	
  1814                           	line	119
  1815  02C0  3001               	movlw	(01h)
  1816  02C1  00D8               	movwf	(??_ir_analize+3+0)
  1817                           	
  1818  02C2  0858               	movf	(??_ir_analize+3+0),w
  1819  02C3  07D6               	addwf	(_ir_analize_i),f
  1820  02C4  3010               	movlw	(010h)
  1821                           	
  1822  02C5  0256               	subwf	(_ir_analize_i),w
  1823  02C6  1C03               	skipc
  1824  02C7  2AC9               	goto	u3071
  1825  02C8  2ACA               	goto	u3070
  1826  02C9                     u3071:
  1827  02C9  2A32               	goto	l88
  1828  02CA                     u3070:
  1829                           	
  1830  02CA                     l89:	
  1831                           	line	143
  1832                           ;ir.c: 142: }
  1833                           ;ir.c: 143: ir_scnt = i;
  1834                           	
  1835  02CA  0856               	movf	(_ir_analize_i),w
  1836  02CB  1383               	bcf	status, 7	;select IRP bank0
  1837                           	
  1838  02CC  00D8               	movwf	(??_ir_analize+3+0)
  1839                           	
  1840  02CD  0858               	movf	(??_ir_analize+3+0),w
  1841  02CE  00F0               	movwf	(112)
  1842                           	line	144
  1843                           ;ir.c: 144: ir_turn = ((tl >> 1) + (ts >> 1));
  1844                           	
  1845  02CF  0877               	movf	(119),w
  1846                           	
  1847  02D0  00D8               	movwf	(??_ir_analize+3+0)
  1848  02D1  3001               	movlw	01h
  1849  02D2                     u3085:
  1850  02D2  1003               	clrc
  1851  02D3  0CD8               	rrf	(??_ir_analize+3+0),f
  1852  02D4  3EFF               	addlw	-1
  1853  02D5  1D03               	skipz
  1854  02D6  2AD2               	goto	u3085
  1855                           	
  1856  02D7  0878               	movf	(120),w
  1857                           	
  1858  02D8  00D9               	movwf	(??_ir_analize+4+0)
  1859  02D9  1003               	clrc
  1860  02DA  0C59               	rrf	(??_ir_analize+4+0),w
  1861  02DB  0758               	addwf	0+(??_ir_analize+3+0),w
  1862  02DC  00DB               	movwf	(??_ir_analize+6+0)
  1863                           	
  1864  02DD  085B               	movf	(??_ir_analize+6+0),w
  1865  02DE  00FA               	movwf	(122)
  1866                           	line	145
  1867                           ;ir.c: 145: ir_sigh = ((hl >> 1) + (hs >> 1)) ;
  1868                           	
  1869  02DF  0873               	movf	(115),w
  1870                           	
  1871  02E0  00D8               	movwf	(??_ir_analize+3+0)
  1872  02E1  3001               	movlw	01h
  1873  02E2                     u3095:
  1874  02E2  1003               	clrc
  1875  02E3  0CD8               	rrf	(??_ir_analize+3+0),f
  1876  02E4  3EFF               	addlw	-1
  1877  02E5  1D03               	skipz
  1878  02E6  2AE2               	goto	u3095
  1879                           	
  1880  02E7  0874               	movf	(116),w
  1881                           	
  1882  02E8  00D9               	movwf	(??_ir_analize+4+0)
  1883  02E9  1003               	clrc
  1884  02EA  0C59               	rrf	(??_ir_analize+4+0),w
  1885  02EB  0758               	addwf	0+(??_ir_analize+3+0),w
  1886  02EC  00DB               	movwf	(??_ir_analize+6+0)
  1887                           	
  1888  02ED  085B               	movf	(??_ir_analize+6+0),w
  1889  02EE  00F1               	movwf	(113)
  1890                           	line	146
  1891                           ;ir.c: 146: ir_sigl = ((ll >> 1) + (ls >> 1));
  1892                           	
  1893  02EF  087B               	movf	(123),w
  1894                           	
  1895  02F0  00D8               	movwf	(??_ir_analize+3+0)
  1896  02F1  3001               	movlw	01h
  1897  02F2                     u3105:
  1898  02F2  1003               	clrc
  1899  02F3  0CD8               	rrf	(??_ir_analize+3+0),f
  1900  02F4  3EFF               	addlw	-1
  1901  02F5  1D03               	skipz
  1902  02F6  2AF2               	goto	u3105
  1903                           	
  1904  02F7  087C               	movf	(124),w
  1905                           	
  1906  02F8  00D9               	movwf	(??_ir_analize+4+0)
  1907  02F9  1003               	clrc
  1908  02FA  0C59               	rrf	(??_ir_analize+4+0),w
  1909  02FB  0758               	addwf	0+(??_ir_analize+3+0),w
  1910  02FC  00DB               	movwf	(??_ir_analize+6+0)
  1911                           	
  1912  02FD  085B               	movf	(??_ir_analize+6+0),w
  1913  02FE  00F5               	movwf	(117)
  1914                           	line	147
  1915                           ;ir.c: 147: }
  1916  02FF                     l77:	
  1917  02FF  0008               	return
  1918                           ; =============== function _ir_analize ends ===
                                 ============
  1919                           
  1920                           GLOBAL __end_of_ir_analize
  1921  0300                     	__end_of_ir_analize:
  1922                           	FNSIZE	_ir_analize,7,0
  1923                           	signat	_ir_analize,88
  1924                           	global	_ir_init
  1925                           	global	??_ir_init
  1926                           	global	?_ir_init
  1927                           
  1928                           ; *************** function _ir_init ***********
                                 ****
  1929                           ; Defined at:
  1930                           ;		line 26 in file "C:\pic\ir-remocon\ir.c"
  1931                           ; Parameters:
  1932                           ;		None
  1933                           ; Auto variables:
  1934                           ;		None
  1935                           ; Return value:
  1936                           ;		type: void 
  1937                           ;		size: 0
  1938                           ; Registers used:
  1939                           ;		wreg
  1940                           ; Tracked objects:
  1941                           ;		On entry : 100/0
  1942                           ;		On exit  : 0/0
  1943                           ;		Unchanged: 0/0
  1944                           ; Data sizes:
  1945                           ;		Autos:    0
  1946                           ;		Params:   0
  1947                           ;		Temp:     0
  1948                           ;		Total:    0
  1949                           ; This function calls:
  1950                           ;		Nothing
  1951                           ; This function is called by:
  1952                           ;		_main
  1953                           ; This function uses a non-reentrant model
  1954                           ; 
  1955                           	psect	text166,local,class=CODE,delta=2
  1956                           	file	"C:\pic\ir-remocon\ir.c"
  1957                           	line	26
  1958                           ;ir.c: 26: void ir_init(void){
  1959                           	
  1960  05DD                     _ir_init:	
  1961                           ; Regs used in _ir_init: [wreg]
  1962                           	line	27
  1963                           ;ir.c: 27: CMCON0 = 0b00000111;
  1964  05DD  3007               	movlw	(07h)
  1965                           	
  1966  05DE  0099               	movwf	(25)	;volatile
  1967                           	line	28
  1968                           ;ir.c: 28: ANS0 = 0;
  1969  05DF  1683               	bsf	status, 5	;RP0=1, select bank1
  1970  05E0  101F               	bcf	(1272/8)^080h,(1272)&7
  1971                           	line	29
  1972                           ;ir.c: 29: ANS3 = 0;
  1973  05E1  119F               	bcf	(1275/8)^080h,(1275)&7
  1974                           	line	30
  1975                           ;ir.c: 30: WPU0 = 0;
  1976  05E2  1015               	bcf	(1192/8)^080h,(1192)&7
  1977                           	line	31
  1978                           ;ir.c: 31: TRISIO0 = 1;
  1979  05E3  1405               	bsf	(1064/8)^080h,(1064)&7
  1980                           	line	32
  1981                           ;ir.c: 32: TRISIO4 = 0;
  1982  05E4  1205               	bcf	(1068/8)^080h,(1068)&7
  1983                           	line	34
  1984                           ;ir.c: 34: GPIO4 = 0;
  1985  05E5  1283               	bcf	status, 5	;RP0=0, select bank0
  1986  05E6  1205               	bcf	(44/8),(44)&7
  1987                           	line	35
  1988                           ;ir.c: 35: }
  1989  05E7                     l39:	
  1990  05E7  0008               	return
  1991                           ; =============== function _ir_init ends ======
                                 =========
  1992                           
  1993                           GLOBAL __end_of_ir_init
  1994  05E8                     	__end_of_ir_init:
  1995                           	FNSIZE	_ir_init,0,0
  1996                           	signat	_ir_init,88
  1997                           	global	_scif_tx_init
  1998                           	global	??_scif_tx_init
  1999                           	global	?_scif_tx_init
  2000                           
  2001                           ; *************** function _scif_tx_init ******
                                 *********
  2002                           ; Defined at:
  2003                           ;		line 17 in file "C:\pic\ir-remocon\scif_tx.c
                                 "
  2004                           ; Parameters:
  2005                           ;		None
  2006                           ; Auto variables:
  2007                           ;		None
  2008                           ; Return value:
  2009                           ;		type: void 
  2010                           ;		size: 0
  2011                           ; Registers used:
  2012                           ;		wreg
  2013                           ; Tracked objects:
  2014                           ;		On entry : 0/0
  2015                           ;		On exit  : 0/0
  2016                           ;		Unchanged: 0/0
  2017                           ; Data sizes:
  2018                           ;		Autos:    0
  2019                           ;		Params:   0
  2020                           ;		Temp:     0
  2021                           ;		Total:    0
  2022                           ; This function calls:
  2023                           ;		Nothing
  2024                           ; This function is called by:
  2025                           ;		_main
  2026                           ; This function uses a non-reentrant model
  2027                           ; 
  2028                           	psect	text167,local,class=CODE,delta=2
  2029                           	file	"C:\pic\ir-remocon\scif_tx.c"
  2030                           	line	17
  2031                           ;pic12f683.h: 15: volatile unsigned char INDF @
                                  0x00;
  2032                           ;pic12f683.h: 16: volatile unsigned char TMR0 @
                                  0x01;
  2033                           ;pic12f683.h: 17: volatile unsigned char PCL @ 
                                 0x02;
  2034                           ;pic12f683.h: 18: volatile unsigned char STATUS
                                  @ 0x03;
  2035                           ;pic12f683.h: 19: unsigned char FSR @ 0x04;
  2036                           ;pic12f683.h: 20: volatile unsigned char GPIO @
                                  0x05;
  2037                           ;pic12f683.h: 21: volatile unsigned char PCLATH
                                  @ 0x0A;
  2038                           ;pic12f683.h: 22: volatile unsigned char INTCON
                                  @ 0x0B;
  2039                           ;pic12f683.h: 23: volatile unsigned char PIR1 @
                                  0x0C;
  2040                           ;pic12f683.h: 24: volatile unsigned char TMR1L 
                                 @ 0x0E;
  2041                           	
  2042  05D1                     _scif_tx_init:	
  2043                           ; Regs used in _scif_tx_init: [wreg]
  2044                           	line	18
  2045                           ;scif_tx.c: 18: T1CON = 0b00110001;
  2046  05D1  3031               	movlw	(031h)
  2047  05D2  1283               	bcf	status, 5	;RP0=0, select bank0
  2048                           	
  2049  05D3  0090               	movwf	(16)	;volatile
  2050                           	line	19
  2051                           ;scif_tx.c: 19: CMCON0 = 0b00000111;
  2052  05D4  3007               	movlw	(07h)
  2053                           	
  2054  05D5  0099               	movwf	(25)	;volatile
  2055                           	line	20
  2056                           ;scif_tx.c: 20: ANS1 = 0;
  2057  05D6  1683               	bsf	status, 5	;RP0=1, select bank1
  2058  05D7  109F               	bcf	(1273/8)^080h,(1273)&7
  2059                           	line	21
  2060                           ;scif_tx.c: 21: GPIO1 = 1;
  2061  05D8  1283               	bcf	status, 5	;RP0=0, select bank0
  2062  05D9  1485               	bsf	(41/8),(41)&7
  2063                           	line	22
  2064                           ;scif_tx.c: 22: TRISIO1 = 0;
  2065  05DA  1683               	bsf	status, 5	;RP0=1, select bank1
  2066  05DB  1085               	bcf	(1065/8)^080h,(1065)&7
  2067                           	line	23
  2068                           ;scif_tx.c: 23: }
  2069  05DC                     l14:	
  2070  05DC  0008               	return
  2071                           ; =============== function _scif_tx_init ends =
                                 ==============
  2072                           
  2073                           GLOBAL __end_of_scif_tx_init
  2074  05DD                     	__end_of_scif_tx_init:
  2075                           	FNSIZE	_scif_tx_init,0,0
  2076                           	signat	_scif_tx_init,88
  2077                           	global	_puthc
  2078                           	global	??_puthc
  2079                           	global	?_puthc
  2080                           
  2081                           ; *************** function _puthc *************
                                 **
  2082                           ; Defined at:
  2083                           ;		line 38 in file "C:\pic\ir-remocon\scif_tx.c
                                 "
  2084                           ; Parameters:
  2085                           ;		d           	reg:   wr	type: unsigned char 
  2086                           ; Auto variables:
  2087                           ;		d           	       	type: unsigned char 
  2088                           ; Return value:
  2089                           ;		type: void 
  2090                           ;		size: 0
  2091                           ; Registers used:
  2092                           ;		wreg, status,2, status,0, pclath, cstack
  2093                           ; Tracked objects:
  2094                           ;		On entry : 900/0
  2095                           ;		On exit  : 0/0
  2096                           ;		Unchanged: 0/0
  2097                           ; Data sizes:
  2098                           ;		Autos:    1
  2099                           ;		Params:   0
  2100                           ;		Temp:     1
  2101                           ;		Total:    2
  2102                           ; This function calls:
  2103                           ;		_putch
  2104                           ; This function is called by:
  2105                           ;		_deb_dat
  2106                           ; This function uses a non-reentrant model
  2107                           ; 
  2108                           	psect	text168,local,class=CODE,delta=2
  2109                           	file	"C:\pic\ir-remocon\scif_tx.c"
  2110                           	line	38
  2111                           ;scif_tx.c: 38: void puthc(unsigned char d){
  2112                           	
  2113  0597                     _puthc:	
  2114                           ; Regs used in _puthc: [wreg+status,2+status,0+
                                 pclath+cstack]
  2115                           ;_puthc_d stored from wreg
  2116                           	line	46
  2117                           	
  2118  0597  00D9               	movwf	(_puthc_d)
  2119                           ;scif_tx.c: 39: const unsigned char hc[] = {
  2120                           ;scif_tx.c: 40: '0', '1', '2', '3',
  2121                           ;scif_tx.c: 41: '4', '5', '6', '7',
  2122                           ;scif_tx.c: 42: '8', '9', 'A', 'B',
  2123                           ;scif_tx.c: 43: 'C', 'D', 'E', 'F'
  2124                           ;scif_tx.c: 44: };
  2125                           ;scif_tx.c: 46: putch(hc[d >> 4]);
  2126                           	
  2127  0598  0859               	movf	(_puthc_d),w
  2128                           	
  2129  0599  00DA               	movwf	(??_puthc+1+0)
  2130  059A  3004               	movlw	04h
  2131  059B                     u3115:
  2132  059B  1003               	clrc
  2133  059C  0CDA               	rrf	(??_puthc+1+0),f
  2134  059D  3EFF               	addlw	-1
  2135  059E  1D03               	skipz
  2136  059F  2D9B               	goto	u3115
  2137  05A0  085A               	movf	0+(??_puthc+1+0),w
  2138                           	
  2139  05A1  3E01               	addlw	(_puthc_hc-__stringbase)
  2140  05A2  2109               	fcall	stringdir
  2141  05A3  2525               	fcall	_putch
  2142                           	line	47
  2143                           ;scif_tx.c: 47: putch(hc[d & 0x0f]);
  2144  05A4  1283               	bcf	status, 5	;RP0=0, select bank0
  2145                           	
  2146  05A5  0859               	movf	(_puthc_d),w
  2147  05A6  1383               	bcf	status, 7	;select IRP bank0
  2148                           	
  2149  05A7  390F               	andlw	0Fh
  2150  05A8  3E01               	addlw	(_puthc_hc-__stringbase)
  2151  05A9  2109               	fcall	stringdir
  2152  05AA  2525               	fcall	_putch
  2153                           	line	48
  2154                           ;scif_tx.c: 48: }
  2155  05AB                     l22:	
  2156  05AB  0008               	return
  2157                           ; =============== function _puthc ends ========
                                 =======
  2158                           
  2159                           GLOBAL __end_of_puthc
  2160  05AC                     	__end_of_puthc:
  2161                           	FNSIZE	_puthc,2,0
  2162                           	signat	_puthc,4216
  2163                           	global	_eeprom_read
  2164                           	global	??_eeprom_read
  2165                           	global	?_eeprom_read
  2166                           
  2167                           ; *************** function _eeprom_read *******
                                 ********
  2168                           ; Defined at:
  2169                           ;		line 8 in file "C:\Program Files\HI-TECH Sof
                                 tware\PICC\PRO\9.60\sources\eeread.c"
  2170                           ; Parameters:
  2171                           ;		addr        	reg:   wr	type: unsigned char 
  2172                           ; Auto variables:
  2173                           ;		addr        	       	type: unsigned char 
  2174                           ; Return value:
  2175                           ;		type: unsigned char 
  2176                           ;		size: 1
  2177                           ; Registers used:
  2178                           ;		wreg, status,2, status,0
  2179                           ; Tracked objects:
  2180                           ;		On entry : 100/0
  2181                           ;		On exit  : 0/0
  2182                           ;		Unchanged: 0/0
  2183                           ; Data sizes:
  2184                           ;		Autos:    1
  2185                           ;		Params:   0
  2186                           ;		Temp:     1
  2187                           ;		Total:    2
  2188                           ; This function calls:
  2189                           ;		Nothing
  2190                           ; This function is called by:
  2191                           ;		_ir_load
  2192                           ; This function uses a non-reentrant model
  2193                           ; 
  2194                           	psect	text169,local,class=CODE,delta=2
  2195                           	file	"C:\Program Files\HI-TECH Software\PICC\P
                                 RO\9.60\sources\eeread.c"
  2196                           	line	8
  2197                           	
  2198  0552                     _eeprom_read:	
  2199                           ; Regs used in _eeprom_read: [wreg+status,2+sta
                                 tus,0]
  2200                           ;_eeprom_read_addr stored from wreg
  2201                           	
  2202  0552  00D7               	movwf	(_eeprom_read_addr)
  2203                           	line	9
  2204  0553  2D55               	goto	l443
  2205                           	
  2206  0554                     l444:	
  2207  0554  2D55               	goto	l443
  2208                           	
  2209  0555                     l443:	
  2210  0555  1683               	bsf	status, 5	;RP0=1, select bank1
  2211  0556  189C               	btfsc	(1249/8)^080h,(1249)&7
  2212  0557  2D59               	goto	u3121
  2213  0558  2D5A               	goto	u3120
  2214  0559                     u3121:
  2215  0559  2D54               	goto	l444
  2216  055A                     u3120:
  2217                           	
  2218  055A                     l445:	
  2219                           	line	10
  2220  055A  1283               	bcf	status, 5	;RP0=0, select bank0
  2221                           	
  2222  055B  0857               	movf	(_eeprom_read_addr),w
  2223  055C  1383               	bcf	status, 7	;select IRP bank0
  2224                           	
  2225  055D  1683               	bsf	status, 5	;RP0=1, select bank1
  2226                           	
  2227  055E  009B               	movwf	(155)^080h	;volatile
  2228  055F  307F               	movlw	(07Fh)
  2229  0560  1283               	bcf	status, 5	;RP0=0, select bank0
  2230  0561  00D8               	movwf	(??_eeprom_read+1+0)
  2231  0562  1683               	bsf	status, 5	;RP0=1, select bank1
  2232                           	
  2233  0563  1283               	bcf	status, 5	;RP0=0, select bank0
  2234  0564  0858               	movf	(??_eeprom_read+1+0),w
  2235  0565  1683               	bsf	status, 5	;RP0=1, select bank1
  2236  0566  059C               	andwf	(156)^080h,f	;volatile
  2237  0567  141C               	bsf	(1248/8)^080h,(1248)&7
  2238                           	
  2239  0568  081A               	movf	(154)^080h,w	;volatile
  2240                           	
  2241  0569  2D6A               	goto	l442
  2242                           	line	11
  2243  056A                     l442:	
  2244  056A  0008               	return
  2245                           ; =============== function _eeprom_read ends ==
                                 =============
  2246                           
  2247                           GLOBAL __end_of_eeprom_read
  2248  056B                     	__end_of_eeprom_read:
  2249                           	FNSIZE	_eeprom_read,2,0
  2250                           	signat	_eeprom_read,4217
  2251                           	global	_eeprom_write
  2252                           	global	??_eeprom_write
  2253                           	global	?_eeprom_write
  2254                           
  2255                           ; *************** function _eeprom_write ******
                                 *********
  2256                           ; Defined at:
  2257                           ;		line 8 in file "C:\Program Files\HI-TECH Sof
                                 tware\PICC\PRO\9.60\sources\eewrite.c"
  2258                           ; Parameters:
  2259                           ;		addr        	reg:   wr	type: unsigned char 
  2260                           ;		value       	offs:   0	type: unsigned char 
  2261                           ; Auto variables:
  2262                           ;		addr        	       	type: unsigned char 
  2263                           ; Return value:
  2264                           ;		type: void 
  2265                           ;		size: 0
  2266                           ; Registers used:
  2267                           ;		wreg, status,2, status,0
  2268                           ; Tracked objects:
  2269                           ;		On entry : 100/0
  2270                           ;		On exit  : 0/0
  2271                           ;		Unchanged: 0/0
  2272                           ; Data sizes:
  2273                           ;		Autos:    1
  2274                           ;		Params:   1
  2275                           ;		Temp:     1
  2276                           ;		Total:    3
  2277                           ; This function calls:
  2278                           ;		Nothing
  2279                           ; This function is called by:
  2280                           ;		_ir_save
  2281                           ; This function uses a non-reentrant model
  2282                           ; 
  2283                           	psect	text170,local,class=CODE,delta=2
  2284                           	file	"C:\Program Files\HI-TECH Software\PICC\P
                                 RO\9.60\sources\eewrite.c"
  2285                           	line	8
  2286                           	
  2287  04F5                     _eeprom_write:	
  2288                           ; Regs used in _eeprom_write: [wreg+status,2+st
                                 atus,0]
  2289                           ;_eeprom_write_addr stored from wreg
  2290                           	
  2291  04F5  00D8               	movwf	(_eeprom_write_addr)
  2292                           	line	9
  2293                           	
  2294  04F6                     l436:	
  2295  04F6  2CF8               	goto	l437
  2296                           	
  2297  04F7                     l438:	
  2298  04F7  2CF8               	goto	l437
  2299                           	
  2300  04F8                     l437:	
  2301  04F8  1683               	bsf	status, 5	;RP0=1, select bank1
  2302  04F9  189C               	btfsc	(1249/8)^080h,(1249)&7
  2303  04FA  2CFC               	goto	u3131
  2304  04FB  2CFD               	goto	u3130
  2305  04FC                     u3131:
  2306  04FC  2CF7               	goto	l438
  2307  04FD                     u3130:
  2308                           	
  2309  04FD                     l439:	
  2310  04FD  1283               	bcf	status, 5	;RP0=0, select bank0
  2311                           	
  2312  04FE  0858               	movf	(_eeprom_write_addr),w
  2313  04FF  1383               	bcf	status, 7	;select IRP bank0
  2314                           	
  2315  0500  1683               	bsf	status, 5	;RP0=1, select bank1
  2316                           	
  2317  0501  009B               	movwf	(155)^080h	;volatile
  2318  0502  1283               	bcf	status, 5	;RP0=0, select bank0
  2319                           	
  2320  0503  0857               	movf	(_eeprom_write_value),w
  2321                           	
  2322  0504  1683               	bsf	status, 5	;RP0=1, select bank1
  2323                           	
  2324  0505  009A               	movwf	(154)^080h	;volatile
  2325  0506  307F               	movlw	(07Fh)
  2326  0507  1283               	bcf	status, 5	;RP0=0, select bank0
  2327  0508  00D9               	movwf	(??_eeprom_write+1+0)
  2328  0509  1683               	bsf	status, 5	;RP0=1, select bank1
  2329                           	
  2330  050A  1283               	bcf	status, 5	;RP0=0, select bank0
  2331  050B  0859               	movf	(??_eeprom_write+1+0),w
  2332  050C  1683               	bsf	status, 5	;RP0=1, select bank1
  2333  050D  059C               	andwf	(156)^080h,f	;volatile
  2334  050E  1283               	bcf	status, 5	;RP0=0, select bank0
  2335  050F  1003               	bcf	(24/8),(24)&7
  2336  0510  1F8B               	btfss	(95/8),(95)&7
  2337  0511  2D13               	goto	u3141
  2338  0512  2D14               	goto	u3140
  2339  0513                     u3141:
  2340  0513  2D15               	goto	l440
  2341  0514                     u3140:
  2342  0514  1403               	bsf	(24/8),(24)&7
  2343                           	
  2344  0515                     l440:	
  2345  0515  138B               	bcf	(95/8),(95)&7
  2346  0516  1683               	bsf	status, 5	;RP0=1, select bank1
  2347  0517  151C               	bsf	(1250/8)^080h,(1250)&7
  2348  0518  3055               	movlw	(055h)
  2349                           	
  2350  0519  009D               	movwf	(157)^080h	;volatile
  2351  051A  30AA               	movlw	(0AAh)
  2352                           	
  2353  051B  009D               	movwf	(157)^080h	;volatile
  2354  051C  149C               	bsf	(1249/8)^080h,(1249)&7
  2355  051D  111C               	bcf	(1250/8)^080h,(1250)&7
  2356  051E  1283               	bcf	status, 5	;RP0=0, select bank0
  2357  051F  1C03               	btfss	(24/8),(24)&7
  2358  0520  2D22               	goto	u3151
  2359  0521  2D23               	goto	u3150
  2360  0522                     u3151:
  2361  0522  2D24               	goto	l435
  2362  0523                     u3150:
  2363  0523  178B               	bsf	(95/8),(95)&7
  2364                           	
  2365  0524                     l441:	
  2366                           	
  2367  0524                     l435:	
  2368                           	line	10
  2369  0524                     l433:	
  2370  0524  0008               	return
  2371                           ; =============== function _eeprom_write ends =
                                 ==============
  2372                           
  2373                           GLOBAL __end_of_eeprom_write
  2374  0525                     	__end_of_eeprom_write:
  2375                           	FNSIZE	_eeprom_write,2,1
  2376                           	signat	_eeprom_write,8312
  2377                           	global	_ir_shot
  2378                           	global	??_ir_shot
  2379                           	global	?_ir_shot
  2380                           
  2381                           ; *************** function _ir_shot ***********
                                 ****
  2382                           ; Defined at:
  2383                           ;		line 63 in file "C:\pic\ir-remocon\ir.c"
  2384                           ; Parameters:
  2385                           ;		t           	reg:   wr	type: unsigned char 
  2386                           ; Auto variables:
  2387                           ;		t           	       	type: unsigned char 
  2388                           ; Return value:
  2389                           ;		type: void 
  2390                           ;		size: 0
  2391                           ; Registers used:
  2392                           ;		wreg, status,2, status,0
  2393                           ; Tracked objects:
  2394                           ;		On entry : 100/0
  2395                           ;		On exit  : 0/0
  2396                           ;		Unchanged: 0/0
  2397                           ; Data sizes:
  2398                           ;		Autos:    1
  2399                           ;		Params:   0
  2400                           ;		Temp:     1
  2401                           ;		Total:    2
  2402                           ; This function calls:
  2403                           ;		__delay
  2404                           ; This function is called by:
  2405                           ;		_ir_control
  2406                           ; This function uses a non-reentrant model
  2407                           ; 
  2408                           	psect	text171,local,class=CODE,delta=2
  2409                           	file	"C:\pic\ir-remocon\ir.c"
  2410                           	line	63
  2411                           ;ir.c: 63: void ir_shot(unsigned char t){
  2412                           	
  2413  044B                     _ir_shot:	
  2414                           ; Regs used in _ir_shot: [wreg+status,2+status,
                                 0]
  2415                           ;_ir_shot_t stored from wreg
  2416                           	
  2417  044B  00D8               	movwf	(_ir_shot_t)
  2418                           	line	64
  2419                           ;ir.c: 64: TMR0 = 0;
  2420  044C  1003               	clrc
  2421                           	
  2422  044D  3000               	movlw	0
  2423  044E  1803               	btfsc	status,0
  2424  044F  3001               	movlw	1
  2425  0450  0081               	movwf	(1)	;volatile
  2426                           	line	65
  2427                           ;ir.c: 65: while(TMR0 < t){
  2428  0451  2C76               	goto	l51
  2429                           	
  2430  0452                     l52:	
  2431                           	line	66
  2432                           ;ir.c: 66: GPIO4 = 1;
  2433  0452  1605               	bsf	(44/8),(44)&7
  2434                           	line	67
  2435                           ;ir.c: 67: if(ir_ldrh < 100) _delay(17);
  2436  0453  3064               	movlw	(064h)
  2437                           	
  2438  0454  0272               	subwf	(114),w
  2439  0455  1803               	skipnc
  2440  0456  2C58               	goto	u3161
  2441  0457  2C59               	goto	u3160
  2442  0458                     u3161:
  2443  0458  2C5F               	goto	l54
  2444  0459                     u3160:
  2445                           	
  2446  0459  3005               	movlw	5
  2447  045A  00D9               movwf	(??_ir_shot+1+0),f
  2448  045B                     u3447:
  2449  045B  0BD9               decfsz	(??_ir_shot+1+0),f
  2450  045C  2C5B               	goto	u3447
  2451  045D  0064               	clrwdt
  2452                           
  2453  045E  2C64               	goto	l55
  2454                           	line	68
  2455                           	
  2456  045F                     l54:	
  2457                           ;ir.c: 68: else _delay(9);
  2458                           	
  2459  045F  3002               	movlw	2
  2460  0460  00D9               movwf	(??_ir_shot+1+0),f
  2461  0461                     u3457:
  2462  0461  0BD9               decfsz	(??_ir_shot+1+0),f
  2463  0462  2C61               	goto	u3457
  2464  0463  2C64               	nop2	;nop
  2465                           
  2466                           	
  2467  0464                     l55:	
  2468                           	line	69
  2469                           ;ir.c: 69: GPIO4 = 0;
  2470  0464  1283               	bcf	status, 5	;RP0=0, select bank0
  2471  0465  1205               	bcf	(44/8),(44)&7
  2472                           	line	70
  2473                           ;ir.c: 70: if(ir_ldrh < 100) _delay(7);
  2474  0466  3064               	movlw	(064h)
  2475                           	
  2476  0467  0272               	subwf	(114),w
  2477  0468  1803               	skipnc
  2478  0469  2C6B               	goto	u3171
  2479  046A  2C6C               	goto	u3170
  2480  046B                     u3171:
  2481  046B  2C71               	goto	l56
  2482  046C                     u3170:
  2483                           	
  2484  046C  3002               	movlw	2
  2485  046D  00D9               movwf	(??_ir_shot+1+0),f
  2486  046E                     u3467:
  2487  046E  0BD9               decfsz	(??_ir_shot+1+0),f
  2488  046F  2C6E               	goto	u3467
  2489                           
  2490  0470  2C76               	goto	l51
  2491                           	line	71
  2492                           	
  2493  0471                     l56:	
  2494                           ;ir.c: 71: else _delay(17);
  2495                           	
  2496  0471  3005               	movlw	5
  2497  0472  00D9               movwf	(??_ir_shot+1+0),f
  2498  0473                     u3477:
  2499  0473  0BD9               decfsz	(??_ir_shot+1+0),f
  2500  0474  2C73               	goto	u3477
  2501  0475  0064               	clrwdt
  2502                           
  2503                           	
  2504  0476                     l57:	
  2505                           	line	72
  2506                           	
  2507  0476                     l51:	
  2508                           	line	65
  2509  0476  1283               	bcf	status, 5	;RP0=0, select bank0
  2510                           	
  2511  0477  0858               	movf	(_ir_shot_t),w
  2512  0478  1383               	bcf	status, 7	;select IRP bank0
  2513                           	
  2514                           	
  2515  0479  0201               	subwf	(1),w	;volatile
  2516  047A  1C03               	skipc
  2517  047B  2C7D               	goto	u3181
  2518  047C  2C7E               	goto	u3180
  2519  047D                     u3181:
  2520  047D  2C52               	goto	l52
  2521  047E                     u3180:
  2522                           	
  2523  047E                     l53:	
  2524                           	line	73
  2525                           ;ir.c: 72: }
  2526                           ;ir.c: 73: TMR0 = 0;
  2527  047E  1003               	clrc
  2528                           	
  2529  047F  3000               	movlw	0
  2530  0480  1803               	btfsc	status,0
  2531  0481  3001               	movlw	1
  2532  0482  0081               	movwf	(1)	;volatile
  2533                           	line	74
  2534                           ;ir.c: 74: }
  2535  0483                     l50:	
  2536  0483  0008               	return
  2537                           ; =============== function _ir_shot ends ======
                                 =========
  2538                           
  2539                           GLOBAL __end_of_ir_shot
  2540  0484                     	__end_of_ir_shot:
  2541                           	FNSIZE	_ir_shot,2,0
  2542                           	signat	_ir_shot,4216
  2543                           	global	_putui
  2544                           	global	??_putui
  2545                           	global	?_putui
  2546                           
  2547                           ; *************** function _putui *************
                                 **
  2548                           ; Defined at:
  2549                           ;		line 50 in file "C:\pic\ir-remocon\scif_tx.c
                                 "
  2550                           ; Parameters:
  2551                           ;		ui          	offs:   0	type: unsigned int 
  2552                           ;		d           	offs:   2	type: unsigned char 
  2553                           ; Auto variables:
  2554                           ;		i           	       	type: unsigned char 
  2555                           ;		buf         	       	type: unsigned char [5]
  2556                           ; Return value:
  2557                           ;		type: void 
  2558                           ;		size: 0
  2559                           ; Registers used:
  2560                           ;		wreg, fsr, status,2, status,0, pclath, cstac
                                 k
  2561                           ; Tracked objects:
  2562                           ;		On entry : 100/0
  2563                           ;		On exit  : 0/0
  2564                           ;		Unchanged: 0/0
  2565                           ; Data sizes:
  2566                           ;		Autos:    6
  2567                           ;		Params:   3
  2568                           ;		Temp:     1
  2569                           ;		Total:   10
  2570                           ; This function calls:
  2571                           ;		___lwmod
  2572                           ;		___lwdiv
  2573                           ;		_putch
  2574                           ; This function is called by:
  2575                           ;		_deb_sig
  2576                           ;		_deb_dat
  2577                           ; This function uses a non-reentrant model
  2578                           ; 
  2579                           	psect	text172,local,class=CODE,delta=2
  2580                           	file	"C:\pic\ir-remocon\scif_tx.c"
  2581                           	line	50
  2582                           ;scif_tx.c: 50: void putui(unsigned int ui, uns
                                 igned char d){
  2583                           	
  2584  0300                     _putui:	
  2585                           ; Regs used in _putui: [wreg+fsr+status,2+statu
                                 s,0+pclath+cstack]
  2586                           	line	55
  2587                           ;scif_tx.c: 52: unsigned char i;
  2588                           ;scif_tx.c: 53: unsigned char buf[5];
  2589                           ;scif_tx.c: 55: for(i = 0; i < 5; i++) buf[i] =
                                  ' ';
  2590  0300  1003               	clrc
  2591                           	
  2592  0301  3000               	movlw	0
  2593  0302  1803               	btfsc	status,0
  2594  0303  3001               	movlw	1
  2595  0304  00DC               	movwf	(_putui_i)
  2596  0305  2B06               	goto	l24
  2597                           	
  2598  0306                     l24:	
  2599  0306  3020               	movlw	(020h)
  2600  0307  00E2               	movwf	(??_putui+6+0)
  2601                           	
  2602  0308  085C               	movf	(_putui_i),w
  2603  0309  1383               	bcf	status, 7	;select IRP bank0
  2604                           	
  2605  030A  3E5D               	addlw	_putui_buf&0ffh
  2606  030B  0084               	movwf	fsr
  2607                           	
  2608  030C  0862               	movf	(??_putui+6+0),w
  2609  030D  0080               	movwf	indf
  2610  030E  3001               	movlw	(01h)
  2611  030F  00E2               	movwf	(??_putui+6+0)
  2612                           	
  2613  0310  0862               	movf	(??_putui+6+0),w
  2614  0311  07DC               	addwf	(_putui_i),f
  2615  0312  3005               	movlw	(05h)
  2616                           	
  2617  0313  025C               	subwf	(_putui_i),w
  2618  0314  1C03               	skipc
  2619  0315  2B17               	goto	u3201
  2620  0316  2B18               	goto	u3200
  2621  0317                     u3201:
  2622  0317  2B06               	goto	l24
  2623  0318                     u3200:
  2624                           	
  2625  0318                     l25:	
  2626                           	line	56
  2627                           ;scif_tx.c: 56: i = 4;
  2628  0318  3004               	movlw	(04h)
  2629                           	
  2630  0319  00DC               	movwf	(_putui_i)
  2631                           	line	57
  2632                           ;scif_tx.c: 57: do {
  2633                           	
  2634  031A                     l29:	
  2635                           	line	58
  2636                           ;scif_tx.c: 58: buf[i] = (ui % 10) + '0';
  2637  031A  300A               	movlw	low(0Ah)
  2638                           	
  2639  031B  00E5               	movwf	(0+?___lwmod+02h)&07fh
  2640  031C  3000               	movlw	high(0Ah)
  2641  031D  00E6               	movwf	((0+?___lwmod+02h)&07fh)+1
  2642                           	
  2643                           	
  2644  031E  0859               	movf	(_putui_ui),w
  2645  031F  01E3               	clrf	(?___lwmod)
  2646  0320  07E3               	addwf	(?___lwmod)
  2647  0321  085A               	movf	(_putui_ui+1),w
  2648  0322  01E4               	clrf	(?___lwmod+1)
  2649  0323  07E4               	addwf	(?___lwmod+1)
  2650  0324  24BD               	fcall	___lwmod
  2651  0325  1283               	bcf	status, 5	;RP0=0, select bank0
  2652  0326  0863               	movf	(0+?___lwmod),w
  2653                           	
  2654  0327  3E30               	addlw	030h
  2655  0328  00E2               	movwf	(??_putui+6+0)
  2656                           	
  2657  0329  085C               	movf	(_putui_i),w
  2658  032A  1383               	bcf	status, 7	;select IRP bank0
  2659                           	
  2660  032B  3E5D               	addlw	_putui_buf&0ffh
  2661  032C  0084               	movwf	fsr
  2662                           	
  2663  032D  0862               	movf	(??_putui+6+0),w
  2664  032E  0080               	movwf	indf
  2665                           	line	59
  2666                           ;scif_tx.c: 59: ui = ui / 10;
  2667  032F  300A               	movlw	low(0Ah)
  2668                           	
  2669  0330  00E5               	movwf	(0+?___lwdiv+02h)&07fh
  2670  0331  3000               	movlw	high(0Ah)
  2671  0332  00E6               	movwf	((0+?___lwdiv+02h)&07fh)+1
  2672                           	
  2673                           	
  2674  0333  0859               	movf	(_putui_ui),w
  2675  0334  01E3               	clrf	(?___lwdiv)
  2676  0335  07E3               	addwf	(?___lwdiv)
  2677  0336  085A               	movf	(_putui_ui+1),w
  2678  0337  01E4               	clrf	(?___lwdiv+1)
  2679  0338  07E4               	addwf	(?___lwdiv+1)
  2680  0339  23C0               	fcall	___lwdiv
  2681  033A  1283               	bcf	status, 5	;RP0=0, select bank0
  2682                           	
  2683  033B  0863               	movf	(0+?___lwdiv),w
  2684  033C  01D9               	clrf	(_putui_ui)
  2685  033D  07D9               	addwf	(_putui_ui)
  2686  033E  0864               	movf	(1+?___lwdiv),w
  2687  033F  01DA               	clrf	(_putui_ui+1)
  2688  0340  07DA               	addwf	(_putui_ui+1)
  2689                           	line	60
  2690                           ;scif_tx.c: 60: i--;
  2691                           	
  2692                           	
  2693  0341  3001               	movlw	low(01h)
  2694  0342  02DC               	subwf	(_putui_i),f
  2695                           	line	61
  2696                           ;scif_tx.c: 61: } while(ui > 0);
  2697                           	
  2698  0343  085A               	movf	((_putui_ui+1))&07fh,w
  2699  0344  0459               	iorwf	((_putui_ui))&07fh,w
  2700  0345  1D03               	skipz
  2701  0346  2B48               	goto	u3211
  2702  0347  2B49               	goto	u3210
  2703  0348                     u3211:
  2704  0348  2B1A               	goto	l29
  2705  0349                     u3210:
  2706                           	
  2707  0349                     l28:	
  2708                           	line	63
  2709                           ;scif_tx.c: 63: for(i = (5 - d); i < 5; i++) pu
                                 tch(buf[i]);
  2710                           	
  2711  0349  085B               	movf	(_putui_d),w
  2712  034A  1383               	bcf	status, 7	;select IRP bank0
  2713                           	
  2714  034B  3C05               	sublw	05h
  2715                           	
  2716  034C  00DC               	movwf	(_putui_i)
  2717  034D  3005               	movlw	(05h)
  2718                           	
  2719  034E  025C               	subwf	(_putui_i),w
  2720  034F  1C03               	skipc
  2721  0350  2B52               	goto	u3221
  2722  0351  2B53               	goto	u3220
  2723  0352                     u3221:
  2724  0352  2B54               	goto	l30
  2725  0353                     u3220:
  2726  0353  2B65               	goto	l31
  2727                           	
  2728  0354                     l30:	
  2729                           	
  2730  0354  085C               	movf	(_putui_i),w
  2731  0355  1383               	bcf	status, 7	;select IRP bank0
  2732                           	
  2733  0356  3E5D               	addlw	_putui_buf&0ffh
  2734  0357  0084               	movwf	fsr
  2735                           	
  2736  0358  0800               	movf	indf,w
  2737                           	
  2738  0359  2525               	fcall	_putch
  2739  035A  3001               	movlw	(01h)
  2740  035B  1283               	bcf	status, 5	;RP0=0, select bank0
  2741  035C  00E2               	movwf	(??_putui+6+0)
  2742                           	
  2743  035D  0862               	movf	(??_putui+6+0),w
  2744  035E  07DC               	addwf	(_putui_i),f
  2745  035F  3005               	movlw	(05h)
  2746                           	
  2747  0360  025C               	subwf	(_putui_i),w
  2748  0361  1C03               	skipc
  2749  0362  2B64               	goto	u3231
  2750  0363  2B65               	goto	u3230
  2751  0364                     u3231:
  2752  0364  2B54               	goto	l30
  2753  0365                     u3230:
  2754                           	
  2755  0365                     l31:	
  2756                           	line	64
  2757                           ;scif_tx.c: 64: }
  2758  0365                     l23:	
  2759  0365  0008               	return
  2760                           ; =============== function _putui ends ========
                                 =======
  2761                           
  2762                           GLOBAL __end_of_putui
  2763  0366                     	__end_of_putui:
  2764                           	FNSIZE	_putui,7,3
  2765                           	signat	_putui,8312
  2766                           	global	_puts
  2767                           	global	??_puts
  2768                           	global	?_puts
  2769                           
  2770                           ; *************** function _puts **************
                                 *
  2771                           ; Defined at:
  2772                           ;		line 66 in file "C:\pic\ir-remocon\scif_tx.c
                                 "
  2773                           ; Parameters:
  2774                           ;		s           	reg:   wr	type: PTR const unsig
                                 ned char ; Largest target is 17
  2775                           ;		 -> STR_17(9), STR_4(5), STR_3(14), STR_2(10
                                 ), 
  2776                           ;		 -> STR_1(17), STR_16(13), STR_15(13), STR_1
                                 4(13), 
  2777                           ;		 -> STR_13(13), STR_12(13), STR_11(13), STR_
                                 10(9), 
  2778                           ;		 -> STR_9(9), STR_8(9), STR_7(11), STR_6(11)
                                 , 
  2779                           ;		 -> STR_5(13), 
  2780                           ; Auto variables:
  2781                           ;		s           	       	type: PTR const unsigne
                                 d char ; Largest target is 17
  2782                           ;		 -> STR_17(9), STR_4(5), STR_3(14), STR_2(10
                                 ), 
  2783                           ;		 -> STR_1(17), STR_16(13), STR_15(13), STR_1
                                 4(13), 
  2784                           ;		 -> STR_13(13), STR_12(13), STR_11(13), STR_
                                 10(9), 
  2785                           ;		 -> STR_9(9), STR_8(9), STR_7(11), STR_6(11)
                                 , 
  2786                           ;		 -> STR_5(13), 
  2787                           ; Return value:
  2788                           ;		type: void 
  2789                           ;		size: 0
  2790                           ; Registers used:
  2791                           ;		wreg, status,2, status,0, pclath, cstack
  2792                           ; Tracked objects:
  2793                           ;		On entry : 0/0
  2794                           ;		On exit  : 0/0
  2795                           ;		Unchanged: 0/0
  2796                           ; Data sizes:
  2797                           ;		Autos:    1
  2798                           ;		Params:   0
  2799                           ;		Temp:     1
  2800                           ;		Total:    2
  2801                           ; This function calls:
  2802                           ;		_putch
  2803                           ; This function is called by:
  2804                           ;		_main
  2805                           ;		_deb_sig
  2806                           ;		_deb_dat
  2807                           ; This function uses a non-reentrant model
  2808                           ; 
  2809                           	psect	text173,local,class=CODE,delta=2
  2810                           	file	"C:\pic\ir-remocon\scif_tx.c"
  2811                           	line	66
  2812                           ;scif_tx.c: 66: void puts(const unsigned char *
                                 s){
  2813                           	
  2814  05AC                     _puts:	
  2815                           ; Regs used in _puts: [wreg+status,2+status,0+p
                                 clath+cstack]
  2816                           ;_puts_s stored from wreg
  2817  05AC  1283               	bcf	status, 5	;RP0=0, select bank0
  2818                           	
  2819  05AD  00D9               	movwf	(_puts_s)
  2820                           	line	67
  2821                           ;scif_tx.c: 67: while(*s) putch(*s++);
  2822  05AE  2DB7               	goto	l34
  2823                           	
  2824  05AF                     l35:	
  2825                           	
  2826  05AF  0859               	movf	(_puts_s),w
  2827                           	
  2828  05B0  2109               	fcall	stringdir
  2829  05B1  2525               	fcall	_putch
  2830  05B2  3001               	movlw	(01h)
  2831  05B3  1283               	bcf	status, 5	;RP0=0, select bank0
  2832  05B4  00DA               	movwf	(??_puts+1+0)
  2833                           	
  2834  05B5  085A               	movf	(??_puts+1+0),w
  2835  05B6  07D9               	addwf	(_puts_s),f
  2836                           	
  2837  05B7                     l34:	
  2838  05B7  1283               	bcf	status, 5	;RP0=0, select bank0
  2839                           	
  2840  05B8  0859               	movf	(_puts_s),w
  2841  05B9  1383               	bcf	status, 7	;select IRP bank0
  2842                           	
  2843  05BA  2109               	fcall	stringdir
  2844  05BB  3800               	iorlw	0
  2845  05BC  1D03               	skipz
  2846  05BD  2DBF               	goto	u3241
  2847  05BE  2DC0               	goto	u3240
  2848  05BF                     u3241:
  2849  05BF  2DAF               	goto	l35
  2850  05C0                     u3240:
  2851                           	
  2852  05C0                     l36:	
  2853                           	line	68
  2854                           ;scif_tx.c: 68: }
  2855  05C0                     l33:	
  2856  05C0  0008               	return
  2857                           ; =============== function _puts ends =========
                                 ======
  2858                           
  2859                           GLOBAL __end_of_puts
  2860  05C1                     	__end_of_puts:
  2861                           	FNSIZE	_puts,2,0
  2862                           	signat	_puts,4216
  2863                           	global	_putch
  2864                           	global	??_putch
  2865                           	global	?_putch
  2866                           
  2867                           ; *************** function _putch *************
                                 **
  2868                           ; Defined at:
  2869                           ;		line 25 in file "C:\pic\ir-remocon\scif_tx.c
                                 "
  2870                           ; Parameters:
  2871                           ;		c           	reg:   wr	type: unsigned char 
  2872                           ; Auto variables:
  2873                           ;		c           	       	type: unsigned char 
  2874                           ; Return value:
  2875                           ;		type: void 
  2876                           ;		size: 0
  2877                           ; Registers used:
  2878                           ;		wreg, status,2, status,0
  2879                           ; Tracked objects:
  2880                           ;		On entry : 0/0
  2881                           ;		On exit  : 0/0
  2882                           ;		Unchanged: 0/0
  2883                           ; Data sizes:
  2884                           ;		Autos:    1
  2885                           ;		Params:   0
  2886                           ;		Temp:     1
  2887                           ;		Total:    2
  2888                           ; This function calls:
  2889                           ;		Nothing
  2890                           ; This function is called by:
  2891                           ;		_puthc
  2892                           ;		_putui
  2893                           ;		_puts
  2894                           ;		_deb_sig
  2895                           ;		_deb_dat
  2896                           ; This function uses a non-reentrant model
  2897                           ; 
  2898                           	psect	text174,local,class=CODE,delta=2
  2899                           	file	"C:\pic\ir-remocon\scif_tx.c"
  2900                           	line	25
  2901                           ;scif_tx.c: 25: void putch(unsigned char c){
  2902                           	
  2903  0525                     _putch:	
  2904                           ; Regs used in _putch: [wreg+status,2+status,0]
  2905                           ;_putch_c stored from wreg
  2906  0525  1283               	bcf	status, 5	;RP0=0, select bank0
  2907                           	
  2908  0526  00E3               	movwf	(_putch_c)
  2909                           	line	26
  2910                           ;scif_tx.c: 26: scif_tx_next = 0;
  2911  0527  107D               	bcf	(1000/8),(1000)&7
  2912                           	line	27
  2913                           ;scif_tx.c: 27: scif_tx_buf = c;
  2914                           	
  2915  0528  0863               	movf	(_putch_c),w
  2916  0529  1383               	bcf	status, 7	;select IRP bank0
  2917                           	
  2918  052A  00E4               	movwf	(??_putch+1+0)
  2919                           	
  2920  052B  0864               	movf	(??_putch+1+0),w
  2921  052C  00F6               	movwf	(118)
  2922                           	line	28
  2923                           ;scif_tx.c: 28: scif_tx_bit = 11;
  2924  052D  300B               	movlw	(0Bh)
  2925  052E  00E4               	movwf	(??_putch+1+0)
  2926                           	
  2927  052F  0864               	movf	(??_putch+1+0),w
  2928  0530  00F9               	movwf	(121)
  2929                           	line	29
  2930                           ;scif_tx.c: 29: do{
  2931                           	
  2932  0531                     l18:	
  2933                           	line	30
  2934                           ;scif_tx.c: 30: while(TMR1L < 206);
  2935  0531  2D32               	goto	l19
  2936                           	
  2937  0532                     l19:	
  2938  0532  30CE               	movlw	(0CEh)
  2939                           	
  2940  0533  020E               	subwf	(14),w	;volatile
  2941  0534  1C03               	skipc
  2942  0535  2D37               	goto	u3251
  2943  0536  2D38               	goto	u3250
  2944  0537                     u3251:
  2945  0537  2D32               	goto	l19
  2946  0538                     u3250:
  2947                           	
  2948  0538                     l21:	
  2949                           	line	31
  2950                           ;scif_tx.c: 31: GPIO1 = scif_tx_next;
  2951  0538  187D               	btfsc	(1000/8),(1000)&7
  2952  0539  2D3B               	goto	u3261
  2953  053A  2D3E               	goto	u3260
  2954                           	
  2955  053B                     u3261:
  2956  053B  1283               	bcf	status, 5	;RP0=0, select bank0
  2957  053C  1485               	bsf	(41/8),(41)&7
  2958  053D  2D40               	goto	u3274
  2959  053E                     u3260:
  2960  053E  1283               	bcf	status, 5	;RP0=0, select bank0
  2961  053F  1085               	bcf	(41/8),(41)&7
  2962  0540                     u3274:
  2963                           	line	32
  2964                           ;scif_tx.c: 32: TMR1L = 0;
  2965  0540  1003               	clrc
  2966                           	
  2967  0541  3000               	movlw	0
  2968  0542  1803               	btfsc	status,0
  2969  0543  3001               	movlw	1
  2970  0544  008E               	movwf	(14)	;volatile
  2971                           	line	33
  2972                           ;scif_tx.c: 33: scif_tx_next = scif_tx_buf & 1;
  2973                           	
  2974  0545  107D               	bcf	(1000/8),(1000)&7
  2975  0546  1C76               	btfss	(118),0
  2976  0547  2D49               	goto	u3285
  2977  0548  147D               	bsf	(1000/8),(1000)&7
  2978  0549                     u3285:
  2979                           
  2980                           	line	34
  2981                           ;scif_tx.c: 34: scif_tx_buf = (scif_tx_buf >> 1
                                 ) | 0x80;
  2982  0549  1403               	setc
  2983                           	
  2984                           	
  2985  054A  0CF6               	rrf	(118),f
  2986                           	line	35
  2987                           ;scif_tx.c: 35: } while(--scif_tx_bit);
  2988                           	
  2989                           	
  2990  054B  3001               	movlw	low(01h)
  2991  054C  02F9               	subwf	(121),f
  2992  054D  1D03               	btfss	status,2
  2993  054E  2D50               	goto	u3291
  2994  054F  2D51               	goto	u3290
  2995  0550                     u3291:
  2996  0550  2D31               	goto	l18
  2997  0551                     u3290:
  2998                           	
  2999  0551                     l17:	
  3000                           	line	36
  3001                           ;scif_tx.c: 36: }
  3002  0551                     l15:	
  3003  0551  0008               	return
  3004                           ; =============== function _putch ends ========
                                 =======
  3005                           
  3006                           GLOBAL __end_of_putch
  3007  0552                     	__end_of_putch:
  3008                           	FNSIZE	_putch,2,0
  3009                           	signat	_putch,4216
  3010                           	global	___lwmod
  3011                           	global	??___lwmod
  3012                           	global	?___lwmod
  3013                           
  3014                           ; *************** function ___lwmod ***********
                                 ****
  3015                           ; Defined at:
  3016                           ;		line 5 in file "C:\Program Files\HI-TECH Sof
                                 tware\PICC\PRO\9.60\sources\lwmod.c"
  3017                           ; Parameters:
  3018                           ;		dividend    	offs:   0	type: unsigned int 
  3019                           ;		divisor     	offs:   2	type: unsigned int 
  3020                           ; Auto variables:
  3021                           ;		counter     	       	type: unsigned char 
  3022                           ; Return value:
  3023                           ;		type: unsigned int 
  3024                           ;		size: 2
  3025                           ; Registers used:
  3026                           ;		wreg, status,2, status,0
  3027                           ; Tracked objects:
  3028                           ;		On entry : 100/0
  3029                           ;		On exit  : 0/0
  3030                           ;		Unchanged: 0/0
  3031                           ; Data sizes:
  3032                           ;		Autos:    1
  3033                           ;		Params:   4
  3034                           ;		Temp:     1
  3035                           ;		Total:    6
  3036                           ; This function calls:
  3037                           ;		Nothing
  3038                           ; This function is called by:
  3039                           ;		_putui
  3040                           ; This function uses a non-reentrant model
  3041                           ; 
  3042                           	psect	text175,local,class=CODE,delta=2
  3043                           	file	"C:\Program Files\HI-TECH Software\PICC\P
                                 RO\9.60\sources\lwmod.c"
  3044                           	line	5
  3045                           	
  3046  04BD                     ___lwmod:	
  3047                           ; Regs used in ___lwmod: [wreg+status,2+status,
                                 0]
  3048                           	line	8
  3049                           	
  3050  04BD  0866               	movf	((___lwmod_divisor+1))&07fh,w
  3051  04BE  0465               	iorwf	((___lwmod_divisor))&07fh,w
  3052  04BF  1903               	skipnz
  3053  04C0  2CC2               	goto	u3301
  3054  04C1  2CC3               	goto	u3300
  3055  04C2                     u3301:
  3056  04C2  2CF3               	goto	l133
  3057  04C3                     u3300:
  3058                           	line	9
  3059                           	
  3060  04C3  01E7               	clrf	(___lwmod_counter)
  3061  04C4  1403               	bsf	status,0
  3062  04C5  0DE7               	rlf	(___lwmod_counter),f
  3063                           	line	10
  3064  04C6  2CD2               	goto	l134
  3065                           	
  3066  04C7                     l135:	
  3067                           	line	11
  3068                           	
  3069  04C7  3001               	movlw	01h
  3070  04C8                     u3315:
  3071  04C8  1003               	clrc
  3072  04C9  0DE5               	rlf	(___lwmod_divisor),f
  3073  04CA  0DE6               	rlf	(___lwmod_divisor+1),f
  3074  04CB  3EFF               	addlw	-1
  3075  04CC  1D03               	skipz
  3076  04CD  2CC8               	goto	u3315
  3077                           	line	12
  3078  04CE  3001               	movlw	(01h)
  3079  04CF  00E8               	movwf	(??___lwmod+1+0)
  3080                           	
  3081  04D0  0868               	movf	(??___lwmod+1+0),w
  3082  04D1  07E7               	addwf	(___lwmod_counter),f
  3083                           	line	13
  3084                           	
  3085  04D2                     l134:	
  3086                           	line	10
  3087                           	
  3088  04D2  1FE6               	btfss	(___lwmod_divisor+1),(15)&7
  3089  04D3  2CD5               	goto	u3321
  3090  04D4  2CD6               	goto	u3320
  3091  04D5                     u3321:
  3092  04D5  2CC7               	goto	l135
  3093  04D6                     u3320:
  3094                           	
  3095  04D6                     l136:	
  3096                           	line	14
  3097                           	
  3098  04D6                     l139:	
  3099                           	line	15
  3100                           	
  3101                           	
  3102  04D6  0866               	movf	(___lwmod_divisor+1),w
  3103  04D7  0264               	subwf	(___lwmod_dividend+1),w
  3104  04D8  1D03               	skipz
  3105  04D9  2CDC               	goto	u3335
  3106  04DA  0865               	movf	(___lwmod_divisor),w
  3107  04DB  0263               	subwf	(___lwmod_dividend),w
  3108  04DC                     u3335:
  3109  04DC  1C03               	skipc
  3110  04DD  2CDF               	goto	u3331
  3111  04DE  2CE0               	goto	u3330
  3112  04DF                     u3331:
  3113  04DF  2CE6               	goto	l140
  3114  04E0                     u3330:
  3115                           	line	16
  3116                           	
  3117                           	
  3118  04E0  0865               	movf	(___lwmod_divisor),w
  3119  04E1  02E3               	subwf	(___lwmod_dividend),f
  3120  04E2  0866               	movf	(___lwmod_divisor+1),w
  3121  04E3  1C03               	skipc
  3122  04E4  03E4               	decf	(___lwmod_dividend+1),f
  3123  04E5  02E4               	subwf	(___lwmod_dividend+1),f
  3124                           	
  3125  04E6                     l140:	
  3126                           	line	17
  3127                           	
  3128  04E6  3001               	movlw	01h
  3129  04E7                     u3345:
  3130  04E7  1003               	clrc
  3131  04E8  0CE6               	rrf	(___lwmod_divisor+1),f
  3132  04E9  0CE5               	rrf	(___lwmod_divisor),f
  3133  04EA  3EFF               	addlw	-1
  3134  04EB  1D03               	skipz
  3135  04EC  2CE7               	goto	u3345
  3136                           	line	18
  3137                           	
  3138                           	
  3139  04ED  3001               	movlw	low(01h)
  3140  04EE  02E7               	subwf	(___lwmod_counter),f
  3141  04EF  1D03               	btfss	status,2
  3142  04F0  2CF2               	goto	u3351
  3143  04F1  2CF3               	goto	u3350
  3144  04F2                     u3351:
  3145  04F2  2CD6               	goto	l139
  3146  04F3                     u3350:
  3147                           	
  3148  04F3                     l138:	
  3149                           	line	19
  3150                           	
  3151  04F3                     l133:	
  3152                           	line	20
  3153  04F3  2CF4               	goto	l132
  3154                           	line	21
  3155  04F4                     l132:	
  3156  04F4  0008               	return
  3157                           ; =============== function ___lwmod ends ======
                                 =========
  3158                           
  3159                           GLOBAL __end_of___lwmod
  3160  04F5                     	__end_of___lwmod:
  3161                           	FNSIZE	___lwmod,2,4
  3162                           	signat	___lwmod,8314
  3163                           	global	___lwdiv
  3164                           	global	??___lwdiv
  3165                           	global	?___lwdiv
  3166                           
  3167                           ; *************** function ___lwdiv ***********
                                 ****
  3168                           ; Defined at:
  3169                           ;		line 5 in file "C:\Program Files\HI-TECH Sof
                                 tware\PICC\PRO\9.60\sources\lwdiv.c"
  3170                           ; Parameters:
  3171                           ;		dividend    	offs:   0	type: unsigned int 
  3172                           ;		divisor     	offs:   2	type: unsigned int 
  3173                           ; Auto variables:
  3174                           ;		counter     	       	type: unsigned char 
  3175                           ;		quotient    	       	type: unsigned int 
  3176                           ; Return value:
  3177                           ;		type: unsigned int 
  3178                           ;		size: 2
  3179                           ; Registers used:
  3180                           ;		wreg, status,2, status,0
  3181                           ; Tracked objects:
  3182                           ;		On entry : 900/0
  3183                           ;		On exit  : 0/0
  3184                           ;		Unchanged: 0/0
  3185                           ; Data sizes:
  3186                           ;		Autos:    3
  3187                           ;		Params:   4
  3188                           ;		Temp:     1
  3189                           ;		Total:    8
  3190                           ; This function calls:
  3191                           ;		Nothing
  3192                           ; This function is called by:
  3193                           ;		_putui
  3194                           ; This function uses a non-reentrant model
  3195                           ; 
  3196                           	psect	text176,local,class=CODE,delta=2
  3197                           	file	"C:\Program Files\HI-TECH Software\PICC\P
                                 RO\9.60\sources\lwdiv.c"
  3198                           	line	5
  3199                           	
  3200  03C0                     ___lwdiv:	
  3201                           ; Regs used in ___lwdiv: [wreg+status,2+status,
                                 0]
  3202                           	line	9
  3203  03C0  3000               	movlw	low(0)
  3204                           	
  3205  03C1  00E8               	movwf	(___lwdiv_quotient)
  3206  03C2  3000               	movlw	high(0)
  3207  03C3  00E9               	movwf	((___lwdiv_quotient))+1
  3208                           	line	10
  3209                           	
  3210  03C4  0866               	movf	((___lwdiv_divisor+1))&07fh,w
  3211  03C5  0465               	iorwf	((___lwdiv_divisor))&07fh,w
  3212  03C6  1903               	skipnz
  3213  03C7  2BC9               	goto	u3361
  3214  03C8  2BCA               	goto	u3360
  3215  03C9                     u3361:
  3216  03C9  2C02               	goto	l124
  3217  03CA                     u3360:
  3218                           	line	11
  3219                           	
  3220  03CA  01E7               	clrf	(___lwdiv_counter)
  3221  03CB  1403               	bsf	status,0
  3222  03CC  0DE7               	rlf	(___lwdiv_counter),f
  3223                           	line	12
  3224  03CD  2BD9               	goto	l125
  3225                           	
  3226  03CE                     l126:	
  3227                           	line	13
  3228                           	
  3229  03CE  3001               	movlw	01h
  3230  03CF                     u3375:
  3231  03CF  1003               	clrc
  3232  03D0  0DE5               	rlf	(___lwdiv_divisor),f
  3233  03D1  0DE6               	rlf	(___lwdiv_divisor+1),f
  3234  03D2  3EFF               	addlw	-1
  3235  03D3  1D03               	skipz
  3236  03D4  2BCF               	goto	u3375
  3237                           	line	14
  3238  03D5  3001               	movlw	(01h)
  3239  03D6  00EA               	movwf	(??___lwdiv+3+0)
  3240                           	
  3241  03D7  086A               	movf	(??___lwdiv+3+0),w
  3242  03D8  07E7               	addwf	(___lwdiv_counter),f
  3243                           	line	15
  3244                           	
  3245  03D9                     l125:	
  3246                           	line	12
  3247                           	
  3248  03D9  1FE6               	btfss	(___lwdiv_divisor+1),(15)&7
  3249  03DA  2BDC               	goto	u3381
  3250  03DB  2BDD               	goto	u3380
  3251  03DC                     u3381:
  3252  03DC  2BCE               	goto	l126
  3253  03DD                     u3380:
  3254                           	
  3255  03DD                     l127:	
  3256                           	line	16
  3257                           	
  3258  03DD                     l130:	
  3259                           	line	17
  3260                           	
  3261  03DD  3001               	movlw	01h
  3262  03DE                     u3395:
  3263  03DE  1003               	clrc
  3264  03DF  0DE8               	rlf	(___lwdiv_quotient),f
  3265  03E0  0DE9               	rlf	(___lwdiv_quotient+1),f
  3266  03E1  3EFF               	addlw	-1
  3267  03E2  1D03               	skipz
  3268  03E3  2BDE               	goto	u3395
  3269                           	line	18
  3270                           	
  3271                           	
  3272  03E4  0866               	movf	(___lwdiv_divisor+1),w
  3273  03E5  0264               	subwf	(___lwdiv_dividend+1),w
  3274  03E6  1D03               	skipz
  3275  03E7  2BEA               	goto	u3405
  3276  03E8  0865               	movf	(___lwdiv_divisor),w
  3277  03E9  0263               	subwf	(___lwdiv_dividend),w
  3278  03EA                     u3405:
  3279  03EA  1C03               	skipc
  3280  03EB  2BED               	goto	u3401
  3281  03EC  2BEE               	goto	u3400
  3282  03ED                     u3401:
  3283  03ED  2BF5               	goto	l131
  3284  03EE                     u3400:
  3285                           	line	19
  3286                           	
  3287                           	
  3288  03EE  0865               	movf	(___lwdiv_divisor),w
  3289  03EF  02E3               	subwf	(___lwdiv_dividend),f
  3290  03F0  0866               	movf	(___lwdiv_divisor+1),w
  3291  03F1  1C03               	skipc
  3292  03F2  03E4               	decf	(___lwdiv_dividend+1),f
  3293  03F3  02E4               	subwf	(___lwdiv_dividend+1),f
  3294                           	line	20
  3295                           	
  3296  03F4  1468               	bsf	(___lwdiv_quotient)+(0/8),(0)&7
  3297                           	line	21
  3298                           	
  3299  03F5                     l131:	
  3300                           	line	22
  3301                           	
  3302  03F5  3001               	movlw	01h
  3303  03F6                     u3415:
  3304  03F6  1003               	clrc
  3305  03F7  0CE6               	rrf	(___lwdiv_divisor+1),f
  3306  03F8  0CE5               	rrf	(___lwdiv_divisor),f
  3307  03F9  3EFF               	addlw	-1
  3308  03FA  1D03               	skipz
  3309  03FB  2BF6               	goto	u3415
  3310                           	line	23
  3311                           	
  3312                           	
  3313  03FC  3001               	movlw	low(01h)
  3314  03FD  02E7               	subwf	(___lwdiv_counter),f
  3315  03FE  1D03               	btfss	status,2
  3316  03FF  2C01               	goto	u3421
  3317  0400  2C02               	goto	u3420
  3318  0401                     u3421:
  3319  0401  2BDD               	goto	l130
  3320  0402                     u3420:
  3321                           	
  3322  0402                     l129:	
  3323                           	line	24
  3324                           	
  3325  0402                     l124:	
  3326                           	line	25
  3327                           	
  3328                           	
  3329  0402  0868               	movf	(___lwdiv_quotient),w
  3330  0403  01E3               	clrf	(?___lwdiv)
  3331  0404  07E3               	addwf	(?___lwdiv)
  3332  0405  0869               	movf	(___lwdiv_quotient+1),w
  3333  0406  01E4               	clrf	(?___lwdiv+1)
  3334  0407  07E4               	addwf	(?___lwdiv+1)
  3335  0408  2C09               	goto	l123
  3336                           	line	26
  3337  0409                     l123:	
  3338  0409  0008               	return
  3339                           ; =============== function ___lwdiv ends ======
                                 =========
  3340                           
  3341                           GLOBAL __end_of___lwdiv
  3342  040A                     	__end_of___lwdiv:
  3343                           	FNSIZE	___lwdiv,4,4
  3344                           	signat	___lwdiv,8314
  3345                           	global	_entry
  3346                           	global	??_entry
  3347                           	global	?_entry
  3348                           
  3349                           ; *************** function _entry *************
                                 **
  3350                           ; Defined at:
  3351                           ;		line 28 in file "C:\pic\ir-remocon\ir-remoco
                                 n.c"
  3352                           ; Parameters:
  3353                           ;		None
  3354                           ; Auto variables:
  3355                           ;		None
  3356                           ; Return value:
  3357                           ;		type: void 
  3358                           ;		size: 0
  3359                           ; Registers used:
  3360                           ;		None
  3361                           ; Tracked objects:
  3362                           ;		On entry : 100/0
  3363                           ;		On exit  : 0/0
  3364                           ;		Unchanged: 0/0
  3365                           ; Data sizes:
  3366                           ;		Autos:    0
  3367                           ;		Params:   0
  3368                           ;		Temp:     4
  3369                           ;		Total:    4
  3370                           ; This function calls:
  3371                           ;		Nothing
  3372                           ; This function is called by:
  3373                           ;		Interrupt level 1
  3374                           ; This function uses a non-reentrant model
  3375                           ; 
  3376                           	psect	intrtext,class=CODE,delta=2
  3377                           	file	"C:\pic\ir-remocon\ir-remocon.c"
  3378                           	line	28
  3379                           ;ir-remocon.c: 11: asm("\tpsect config,class=CO
                                 NFIG,delta=2"); asm("\tdw ""0x3FDF & 0x3FEF & 0
                                 x3CFF & 0x3FFF & 0x3FF7 & 0x3FFC & 0x37FF & 0x3
                                 BFF");
  3380                           ;ir-remocon.c: 22: asm("\tpsect idloc,class=IDL
                                 OC,delta=2"); asm("\tglobal\tidloc_word"); asm(
                                 "idloc_word"); asm("\tirpc\t__arg," "F683"); as
                                 m("\tdw 0&__arg&h"); asm("\tendm");
  3381                           ;ir-remocon.c: 28: void interrupt entry(void){
  3382                           	
  3383  05C1                     _entry:	
  3384                           ; Regs used in _entry: []
  3385                           	psect	intentry,class=CODE,delta=2
  3386                           global interrupt_function
  3387  0004                     interrupt_function:
  3388                           	global saved_w
  3389  0000                     	saved_w	set	btemp+1
  3390  0004  00FF               	movwf	saved_w
  3391  0005  0803               	movf	status,w
  3392  0006  1283               	bcf	status, 5	;RP0=0, select bank0
  3393  0007  00EB               	movwf	(??_entry+0)
  3394  0008  0804               	movf	fsr,w
  3395  0009  00EC               	movwf	(??_entry+1)
  3396  000A  080A               	movf	pclath,w
  3397  000B  00ED               	movwf	(??_entry+2)
  3398  000C  087E               	movf	btemp+0,w
  3399  000D  00EE               	movwf	(??_entry+3)
  3400  000E  2DC1               	ljmp	_entry
  3401                           	psect	intrtext
  3402                           	line	29
  3403                           ;ir-remocon.c: 29: if(INTF)
  3404  05C1  1C8B               	btfss	(89/8),(89)&7
  3405  05C2  2DC4               	goto	i1u2061
  3406  05C3  2DC5               	goto	i1u2060
  3407  05C4                     i1u2061:
  3408  05C4  2DC6               	goto	i1l2
  3409  05C5                     i1u2060:
  3410                           	line	30
  3411                           ;ir-remocon.c: 30: INTF = 0;
  3412  05C5  108B               	bcf	(89/8),(89)&7
  3413                           	
  3414  05C6                     i1l2:	
  3415                           	line	31
  3416                           ;ir-remocon.c: 31: }
  3417  05C6                     i1l1:	
  3418  05C6  086E               	movf	(??_entry+3),w
  3419  05C7  00FE               	movwf	btemp+0
  3420  05C8  086D               	movf	(??_entry+2),w
  3421  05C9  008A               	movwf	pclath
  3422  05CA  086C               	movf	(??_entry+1),w
  3423  05CB  0084               	movwf	fsr
  3424  05CC  086B               	movf	(??_entry+0),w
  3425  05CD  0083               	movwf	status
  3426  05CE  0EFF               	swapf	saved_w,f
  3427  05CF  0E7F               	swapf	saved_w,w
  3428  05D0  0009               	retfie
  3429                           ; =============== function _entry ends ========
                                 =======
  3430                           
  3431                           GLOBAL __end_of_entry
  3432  05D1                     	__end_of_entry:
  3433                           	FNSIZE	_entry,4,0
  3434                           	signat	_entry,88
  3435                           	FNCALL	_main,_ir_init
  3436                           	FNCALL	_main,_scif_tx_init
  3437                           	FNCALL	_main,_puts
  3438                           	FNCALL	_main,_ir_analize
  3439                           	FNCALL	_main,_ir_save
  3440                           	FNCALL	_main,_deb_sig
  3441                           	FNCALL	_main,_deb_dat
  3442                           	FNCALL	_main,_ir_load
  3443                           	FNCALL	_main,_ir_control
  3444                           	FNCALL	_deb_sig,_puts
  3445                           	FNCALL	_deb_sig,_putch
  3446                           	FNCALL	_deb_sig,_putui
  3447                           	FNCALL	_ir_save,_eeprom_write
  3448                           	FNCALL	_deb_dat,_puts
  3449                           	FNCALL	_deb_dat,_putui
  3450                           	FNCALL	_deb_dat,_putch
  3451                           	FNCALL	_deb_dat,_puthc
  3452                           	FNCALL	_ir_control,_ir_shot
  3453                           	FNCALL	_ir_load,_eeprom_read
  3454                           	FNCALL	_puthc,_putch
  3455                           	FNCALL	_putui,___lwmod
  3456                           	FNCALL	_putui,___lwdiv
  3457                           	FNCALL	_putui,_putch
  3458                           	FNCALL	_puts,_putch
  3459                           	FNROOT	_main
  3460                           	FNCALL	intlevel1,_entry
  3461                           	global	intlevel1
  3462                           	FNROOT	intlevel1
  3463                           	psect	strings,class=CODE,delta=2,reloc=256
  3464                           	global	stringdir,stringtab,__stringbase,string
                                 jmp
  3465  0100                     stringtab:
  3466  0100  00FE               	movwf	(btemp)&07Fh
  3467  0101  1FFE               	btfss	(btemp)&07Fh,7
  3468  0102  2908               	goto	stringcode
  3469  0103  1383               	bcf	status,7
  3470  0104  187E               	btfsc	btemp&7Fh,0
  3471  0105  1783               	bsf	status,7
  3472  0106  0800               	movf	indf,w
  3473  0107  0008               	return
  3474  0108                     stringcode:
  3475  0108  0804               	movf	fsr,w
  3476  0109                     stringdir:
  3477  0109  00FE               movwf btemp&07Fh
  3478  010A  3001               movlw high(stringdir)
  3479  010B  008A               movwf pclath
  3480  010C  087E               movf btemp&07Fh,w
  3481  010D                     stringjmp:
  3482  010D  0782               	addwf pc
  3483  010E                     __stringbase:
  3484  010E  3400               	retlw	0
  3485                           	global	_puthc_hc
  3486                           	file	"C:\pic\ir-remocon\scif_tx.c"
  3487                           	line	39
  3488  010F                     _puthc_hc:
  3489  010F  3430               	retlw	030h
  3490  0110  3431               	retlw	031h
  3491  0111  3432               	retlw	032h
  3492  0112  3433               	retlw	033h
  3493  0113  3434               	retlw	034h
  3494  0114  3435               	retlw	035h
  3495  0115  3436               	retlw	036h
  3496  0116  3437               	retlw	037h
  3497  0117  3438               	retlw	038h
  3498  0118  3439               	retlw	039h
  3499  0119  3441               	retlw	041h
  3500  011A  3442               	retlw	042h
  3501  011B  3443               	retlw	043h
  3502  011C  3444               	retlw	044h
  3503  011D  3445               	retlw	045h
  3504  011E  3446               	retlw	046h
  3505                           	global	_puthc_hc
  3506                           	global	_ir_sig
  3507                           	psect	rbss_0,class=BANK0,space=1
  3508                           
  3509                           	DABS	1,65,16	;_ir_sig
  3510  0000                     	_ir_sig	set	0x41
  3511                           
  3512                           	global	_hl
  3513                           	psect	common,class=COMMON,space=1
  3514                           
  3515                           	DABS	1,115,1	;_hl
  3516  0000                     	_hl	set	0x73
  3517                           
  3518                           	global	_hs
  3519                           
  3520                           	DABS	1,116,1	;_hs
  3521  0000                     	_hs	set	0x74
  3522                           
  3523                           	global	_ir_ldrh
  3524                           
  3525                           	DABS	1,114,1	;_ir_ldrh
  3526  0000                     	_ir_ldrh	set	0x72
  3527                           
  3528                           	global	_ir_ldrl
  3529                           	psect	rbss_0
  3530                           
  3531                           	DABS	1,64,1	;_ir_ldrl
  3532  0000                     	_ir_ldrl	set	0x40
  3533                           
  3534                           	global	_ir_scnt
  3535                           	psect	common
  3536                           
  3537                           	DABS	1,112,1	;_ir_scnt
  3538  0000                     	_ir_scnt	set	0x70
  3539                           
  3540                           	global	_ir_sigh
  3541                           
  3542                           	DABS	1,113,1	;_ir_sigh
  3543  0000                     	_ir_sigh	set	0x71
  3544                           
  3545                           	global	_ir_sigl
  3546                           
  3547                           	DABS	1,117,1	;_ir_sigl
  3548  0000                     	_ir_sigl	set	0x75
  3549                           
  3550                           	global	_ir_turn
  3551                           
  3552                           	DABS	1,122,1	;_ir_turn
  3553  0000                     	_ir_turn	set	0x7A
  3554                           
  3555                           	global	_ll
  3556                           
  3557                           	DABS	1,123,1	;_ll
  3558  0000                     	_ll	set	0x7B
  3559                           
  3560                           	global	_ls
  3561                           
  3562                           	DABS	1,124,1	;_ls
  3563  0000                     	_ls	set	0x7C
  3564                           
  3565                           	global	_scif_tx_bit
  3566                           
  3567                           	DABS	1,121,1	;_scif_tx_bit
  3568  0000                     	_scif_tx_bit	set	0x79
  3569                           
  3570                           	global	_scif_tx_buf
  3571                           
  3572                           	DABS	1,118,1	;_scif_tx_buf
  3573  0000                     	_scif_tx_buf	set	0x76
  3574                           
  3575                           	global	_tl
  3576                           
  3577                           	DABS	1,119,1	;_tl
  3578  0000                     	_tl	set	0x77
  3579                           
  3580                           	global	_ts
  3581                           
  3582                           	DABS	1,120,1	;_ts
  3583  0000                     	_ts	set	0x78
  3584                           
  3585                           	global	_scif_tx_next
  3586                           	psect	rbit_0,class=BANK0,bit,space=1
  3587                           
  3588                           	DABS	1,125,1	;_scif_tx_next
  3589  0000                     	_scif_tx_next	set	0x3E8	;byte address: 0x7D
  3590                           
  3591                           	global	_ADCON0
  3592                           	global	_ADCON0
  3593  0000                     	_ADCON0	set	0x1F
  3594                           
  3595                           	global	_ADRESH
  3596                           	global	_ADRESH
  3597  0000                     	_ADRESH	set	0x1E
  3598                           
  3599                           	global	_ADRESL
  3600                           	global	_ADRESL
  3601  0000                     	_ADRESL	set	0x9E
  3602                           
  3603                           	global	_ANSEL
  3604                           	global	_ANSEL
  3605  0000                     	_ANSEL	set	0x9F
  3606                           
  3607                           	global	_CCP1CON
  3608                           	global	_CCP1CON
  3609  0000                     	_CCP1CON	set	0x15
  3610                           
  3611                           	global	_CCPR1H
  3612                           	global	_CCPR1H
  3613  0000                     	_CCPR1H	set	0x14
  3614                           
  3615                           	global	_CCPR1L
  3616                           	global	_CCPR1L
  3617  0000                     	_CCPR1L	set	0x13
  3618                           
  3619                           	global	_CMCON0
  3620  0000                     	_CMCON0	set	0x19
  3621                           
  3622                           	global	_CMCON1
  3623                           	global	_CMCON1
  3624  0000                     	_CMCON1	set	0x1A
  3625                           
  3626                           	global	_EEADR
  3627  0000                     	_EEADR	set	0x9B
  3628                           
  3629                           	global	_EEADRL
  3630                           	global	_EEADRL
  3631  0000                     	_EEADRL	set	0x9B
  3632                           
  3633                           	global	_EECON1
  3634  0000                     	_EECON1	set	0x9C
  3635                           
  3636                           	global	_EECON2
  3637  0000                     	_EECON2	set	0x9D
  3638                           
  3639                           	global	_EEDAT
  3640                           	global	_EEDAT
  3641  0000                     	_EEDAT	set	0x9A
  3642                           
  3643                           	global	_EEDATA
  3644  0000                     	_EEDATA	set	0x9A
  3645                           
  3646                           	global	_FSR
  3647                           	global	_FSR
  3648  0000                     	_FSR	set	0x4
  3649                           
  3650                           	global	_GPIO
  3651                           	global	_GPIO
  3652  0000                     	_GPIO	set	0x5
  3653                           
  3654                           	global	_INDF
  3655                           	global	_INDF
  3656  0000                     	_INDF	set	0x0
  3657                           
  3658                           	global	_INTCON
  3659                           	global	_INTCON
  3660  0000                     	_INTCON	set	0xB
  3661                           
  3662                           	global	_IOC
  3663                           	global	_IOC
  3664  0000                     	_IOC	set	0x96
  3665                           
  3666                           	global	_OPTION
  3667  0000                     	_OPTION	set	0x81
  3668                           
  3669                           	global	_OSCCON
  3670  0000                     	_OSCCON	set	0x8F
  3671                           
  3672                           	global	_OSCTUNE
  3673                           	global	_OSCTUNE
  3674  0000                     	_OSCTUNE	set	0x90
  3675                           
  3676                           	global	_PCL
  3677                           	global	_PCL
  3678  0000                     	_PCL	set	0x2
  3679                           
  3680                           	global	_PCLATH
  3681                           	global	_PCLATH
  3682  0000                     	_PCLATH	set	0xA
  3683                           
  3684                           	global	_PCON
  3685                           	global	_PCON
  3686  0000                     	_PCON	set	0x8E
  3687                           
  3688                           	global	_PIE1
  3689                           	global	_PIE1
  3690  0000                     	_PIE1	set	0x8C
  3691                           
  3692                           	global	_PIR1
  3693                           	global	_PIR1
  3694  0000                     	_PIR1	set	0xC
  3695                           
  3696                           	global	_PR2
  3697                           	global	_PR2
  3698  0000                     	_PR2	set	0x92
  3699                           
  3700                           	global	_STATUS
  3701                           	global	_STATUS
  3702  0000                     	_STATUS	set	0x3
  3703                           
  3704                           	global	_T1CON
  3705  0000                     	_T1CON	set	0x10
  3706                           
  3707                           	global	_T2CON
  3708                           	global	_T2CON
  3709  0000                     	_T2CON	set	0x12
  3710                           
  3711                           	global	_TMR0
  3712  0000                     	_TMR0	set	0x1
  3713                           
  3714                           	global	_TMR1H
  3715                           	global	_TMR1H
  3716  0000                     	_TMR1H	set	0xF
  3717                           
  3718                           	global	_TMR1L
  3719  0000                     	_TMR1L	set	0xE
  3720                           
  3721                           	global	_TMR2
  3722                           	global	_TMR2
  3723  0000                     	_TMR2	set	0x11
  3724                           
  3725                           	global	_TRISIO
  3726                           	global	_TRISIO
  3727  0000                     	_TRISIO	set	0x85
  3728                           
  3729                           	global	_VRCON
  3730                           	global	_VRCON
  3731  0000                     	_VRCON	set	0x99
  3732                           
  3733                           	global	_WDTCON
  3734                           	global	_WDTCON
  3735  0000                     	_WDTCON	set	0x18
  3736                           
  3737                           	global	_WPU
  3738                           	global	_WPU
  3739  0000                     	_WPU	set	0x95
  3740                           
  3741                           	global	_ADCS0
  3742                           	global	_ADCS0
  3743  0000                     	_ADCS0	set	0x4FC	;byte address: 0x9F
  3744                           
  3745                           	global	_ADCS1
  3746                           	global	_ADCS1
  3747  0000                     	_ADCS1	set	0x4FD	;byte address: 0x9F
  3748                           
  3749                           	global	_ADCS2
  3750                           	global	_ADCS2
  3751  0000                     	_ADCS2	set	0x4FE	;byte address: 0x9F
  3752                           
  3753                           	global	_ADFM
  3754                           	global	_ADFM
  3755  0000                     	_ADFM	set	0xFF	;byte address: 0x1F
  3756                           
  3757                           	global	_ADIE
  3758                           	global	_ADIE
  3759  0000                     	_ADIE	set	0x466	;byte address: 0x8C
  3760                           
  3761                           	global	_ADIF
  3762                           	global	_ADIF
  3763  0000                     	_ADIF	set	0x66	;byte address: 0xC
  3764                           
  3765                           	global	_ADON
  3766                           	global	_ADON
  3767  0000                     	_ADON	set	0xF8	;byte address: 0x1F
  3768                           
  3769                           	global	_ANS0
  3770  0000                     	_ANS0	set	0x4F8	;byte address: 0x9F
  3771                           
  3772                           	global	_ANS1
  3773  0000                     	_ANS1	set	0x4F9	;byte address: 0x9F
  3774                           
  3775                           	global	_ANS2
  3776  0000                     	_ANS2	set	0x4FA	;byte address: 0x9F
  3777                           
  3778                           	global	_ANS3
  3779  0000                     	_ANS3	set	0x4FB	;byte address: 0x9F
  3780                           
  3781                           	global	_BOD
  3782                           	global	_BOD
  3783  0000                     	_BOD	set	0x470	;byte address: 0x8E
  3784                           
  3785                           	global	_CARRY
  3786  0000                     	_CARRY	set	0x18	;byte address: 0x3
  3787                           
  3788                           	global	_CCP1IE
  3789                           	global	_CCP1IE
  3790  0000                     	_CCP1IE	set	0x465	;byte address: 0x8C
  3791                           
  3792                           	global	_CCP1IF
  3793                           	global	_CCP1IF
  3794  0000                     	_CCP1IF	set	0x65	;byte address: 0xC
  3795                           
  3796                           	global	_CCP1M0
  3797                           	global	_CCP1M0
  3798  0000                     	_CCP1M0	set	0xA8	;byte address: 0x15
  3799                           
  3800                           	global	_CCP1M1
  3801                           	global	_CCP1M1
  3802  0000                     	_CCP1M1	set	0xA9	;byte address: 0x15
  3803                           
  3804                           	global	_CCP1M2
  3805                           	global	_CCP1M2
  3806  0000                     	_CCP1M2	set	0xAA	;byte address: 0x15
  3807                           
  3808                           	global	_CCP1M3
  3809                           	global	_CCP1M3
  3810  0000                     	_CCP1M3	set	0xAB	;byte address: 0x15
  3811                           
  3812                           	global	_CHS0
  3813                           	global	_CHS0
  3814  0000                     	_CHS0	set	0xFA	;byte address: 0x1F
  3815                           
  3816                           	global	_CHS1
  3817                           	global	_CHS1
  3818  0000                     	_CHS1	set	0xFB	;byte address: 0x1F
  3819                           
  3820                           	global	_CHS2
  3821                           	global	_CHS2
  3822  0000                     	_CHS2	set	0xFC	;byte address: 0x1F
  3823                           
  3824                           	global	_CINV
  3825                           	global	_CINV
  3826  0000                     	_CINV	set	0xCC	;byte address: 0x19
  3827                           
  3828                           	global	_CIS
  3829                           	global	_CIS
  3830  0000                     	_CIS	set	0xCB	;byte address: 0x19
  3831                           
  3832                           	global	_CM0
  3833                           	global	_CM0
  3834  0000                     	_CM0	set	0xC8	;byte address: 0x19
  3835                           
  3836                           	global	_CM1
  3837                           	global	_CM1
  3838  0000                     	_CM1	set	0xC9	;byte address: 0x19
  3839                           
  3840                           	global	_CM2
  3841                           	global	_CM2
  3842  0000                     	_CM2	set	0xCA	;byte address: 0x19
  3843                           
  3844                           	global	_CMIE
  3845                           	global	_CMIE
  3846  0000                     	_CMIE	set	0x463	;byte address: 0x8C
  3847                           
  3848                           	global	_CMIF
  3849                           	global	_CMIF
  3850  0000                     	_CMIF	set	0x63	;byte address: 0xC
  3851                           
  3852                           	global	_CMSYNC
  3853                           	global	_CMSYNC
  3854  0000                     	_CMSYNC	set	0xD0	;byte address: 0x1A
  3855                           
  3856                           	global	_COUT
  3857                           	global	_COUT
  3858  0000                     	_COUT	set	0xCE	;byte address: 0x19
  3859                           
  3860                           	global	_DC
  3861                           	global	_DC
  3862  0000                     	_DC	set	0x19	;byte address: 0x3
  3863                           
  3864                           	global	_DC1B0
  3865                           	global	_DC1B0
  3866  0000                     	_DC1B0	set	0xAC	;byte address: 0x15
  3867                           
  3868                           	global	_DC1B1
  3869                           	global	_DC1B1
  3870  0000                     	_DC1B1	set	0xAD	;byte address: 0x15
  3871                           
  3872                           	global	_EEIE
  3873                           	global	_EEIE
  3874  0000                     	_EEIE	set	0x467	;byte address: 0x8C
  3875                           
  3876                           	global	_EEIF
  3877                           	global	_EEIF
  3878  0000                     	_EEIF	set	0x67	;byte address: 0xC
  3879                           
  3880                           	global	_GIE
  3881  0000                     	_GIE	set	0x5F	;byte address: 0xB
  3882                           
  3883                           	global	_GODONE
  3884                           	global	_GODONE
  3885  0000                     	_GODONE	set	0xF9	;byte address: 0x1F
  3886                           
  3887                           	global	_GPIE
  3888                           	global	_GPIE
  3889  0000                     	_GPIE	set	0x5B	;byte address: 0xB
  3890                           
  3891                           	global	_GPIF
  3892                           	global	_GPIF
  3893  0000                     	_GPIF	set	0x58	;byte address: 0xB
  3894                           
  3895                           	global	_GPIO0
  3896  0000                     	_GPIO0	set	0x28	;byte address: 0x5
  3897                           
  3898                           	global	_GPIO1
  3899  0000                     	_GPIO1	set	0x29	;byte address: 0x5
  3900                           
  3901                           	global	_GPIO2
  3902  0000                     	_GPIO2	set	0x2A	;byte address: 0x5
  3903                           
  3904                           	global	_GPIO3
  3905                           	global	_GPIO3
  3906  0000                     	_GPIO3	set	0x2B	;byte address: 0x5
  3907                           
  3908                           	global	_GPIO4
  3909  0000                     	_GPIO4	set	0x2C	;byte address: 0x5
  3910                           
  3911                           	global	_GPIO5
  3912  0000                     	_GPIO5	set	0x2D	;byte address: 0x5
  3913                           
  3914                           	global	_GPPU
  3915  0000                     	_GPPU	set	0x40F	;byte address: 0x81
  3916                           
  3917                           	global	_HTS
  3918                           	global	_HTS
  3919  0000                     	_HTS	set	0x47A	;byte address: 0x8F
  3920                           
  3921                           	global	_INTE
  3922  0000                     	_INTE	set	0x5C	;byte address: 0xB
  3923                           
  3924                           	global	_INTEDG
  3925                           	global	_INTEDG
  3926  0000                     	_INTEDG	set	0x40E	;byte address: 0x81
  3927                           
  3928                           	global	_INTF
  3929  0000                     	_INTF	set	0x59	;byte address: 0xB
  3930                           
  3931                           	global	_IOC0
  3932                           	global	_IOC0
  3933  0000                     	_IOC0	set	0x4B0	;byte address: 0x96
  3934                           
  3935                           	global	_IOC1
  3936                           	global	_IOC1
  3937  0000                     	_IOC1	set	0x4B1	;byte address: 0x96
  3938                           
  3939                           	global	_IOC2
  3940                           	global	_IOC2
  3941  0000                     	_IOC2	set	0x4B2	;byte address: 0x96
  3942                           
  3943                           	global	_IOC3
  3944                           	global	_IOC3
  3945  0000                     	_IOC3	set	0x4B3	;byte address: 0x96
  3946                           
  3947                           	global	_IOC4
  3948                           	global	_IOC4
  3949  0000                     	_IOC4	set	0x4B4	;byte address: 0x96
  3950                           
  3951                           	global	_IOC5
  3952                           	global	_IOC5
  3953  0000                     	_IOC5	set	0x4B5	;byte address: 0x96
  3954                           
  3955                           	global	_IRCF0
  3956                           	global	_IRCF0
  3957  0000                     	_IRCF0	set	0x47C	;byte address: 0x8F
  3958                           
  3959                           	global	_IRCF1
  3960                           	global	_IRCF1
  3961  0000                     	_IRCF1	set	0x47D	;byte address: 0x8F
  3962                           
  3963                           	global	_IRCF2
  3964                           	global	_IRCF2
  3965  0000                     	_IRCF2	set	0x47E	;byte address: 0x8F
  3966                           
  3967                           	global	_IRP
  3968                           	global	_IRP
  3969  0000                     	_IRP	set	0x1F	;byte address: 0x3
  3970                           
  3971                           	global	_LTS
  3972                           	global	_LTS
  3973  0000                     	_LTS	set	0x479	;byte address: 0x8F
  3974                           
  3975                           	global	_OSFIE
  3976                           	global	_OSFIE
  3977  0000                     	_OSFIE	set	0x462	;byte address: 0x8C
  3978                           
  3979                           	global	_OSFIF
  3980                           	global	_OSFIF
  3981  0000                     	_OSFIF	set	0x62	;byte address: 0xC
  3982                           
  3983                           	global	_OSTS
  3984                           	global	_OSTS
  3985  0000                     	_OSTS	set	0x47B	;byte address: 0x8F
  3986                           
  3987                           	global	_PD
  3988                           	global	_PD
  3989  0000                     	_PD	set	0x1B	;byte address: 0x3
  3990                           
  3991                           	global	_PEIE
  3992                           	global	_PEIE
  3993  0000                     	_PEIE	set	0x5E	;byte address: 0xB
  3994                           
  3995                           	global	_POR
  3996                           	global	_POR
  3997  0000                     	_POR	set	0x471	;byte address: 0x8E
  3998                           
  3999                           	global	_PS0
  4000                           	global	_PS0
  4001  0000                     	_PS0	set	0x408	;byte address: 0x81
  4002                           
  4003                           	global	_PS1
  4004                           	global	_PS1
  4005  0000                     	_PS1	set	0x409	;byte address: 0x81
  4006                           
  4007                           	global	_PS2
  4008                           	global	_PS2
  4009  0000                     	_PS2	set	0x40A	;byte address: 0x81
  4010                           
  4011                           	global	_PSA
  4012                           	global	_PSA
  4013  0000                     	_PSA	set	0x40B	;byte address: 0x81
  4014                           
  4015                           	global	_RD
  4016  0000                     	_RD	set	0x4E0	;byte address: 0x9C
  4017                           
  4018                           	global	_RP0
  4019                           	global	_RP0
  4020  0000                     	_RP0	set	0x1D	;byte address: 0x3
  4021                           
  4022                           	global	_RP1
  4023                           	global	_RP1
  4024  0000                     	_RP1	set	0x1E	;byte address: 0x3
  4025                           
  4026                           	global	_SBODEN
  4027                           	global	_SBODEN
  4028  0000                     	_SBODEN	set	0x474	;byte address: 0x8E
  4029                           
  4030                           	global	_SCS
  4031                           	global	_SCS
  4032  0000                     	_SCS	set	0x478	;byte address: 0x8F
  4033                           
  4034                           	global	_SWDTEN
  4035                           	global	_SWDTEN
  4036  0000                     	_SWDTEN	set	0xC0	;byte address: 0x18
  4037                           
  4038                           	global	_T0CS
  4039                           	global	_T0CS
  4040  0000                     	_T0CS	set	0x40D	;byte address: 0x81
  4041                           
  4042                           	global	_T0IE
  4043                           	global	_T0IE
  4044  0000                     	_T0IE	set	0x5D	;byte address: 0xB
  4045                           
  4046                           	global	_T0IF
  4047                           	global	_T0IF
  4048  0000                     	_T0IF	set	0x5A	;byte address: 0xB
  4049                           
  4050                           	global	_T0SE
  4051                           	global	_T0SE
  4052  0000                     	_T0SE	set	0x40C	;byte address: 0x81
  4053                           
  4054                           	global	_T1CKPS0
  4055                           	global	_T1CKPS0
  4056  0000                     	_T1CKPS0	set	0x84	;byte address: 0x10
  4057                           
  4058                           	global	_T1CKPS1
  4059                           	global	_T1CKPS1
  4060  0000                     	_T1CKPS1	set	0x85	;byte address: 0x10
  4061                           
  4062                           	global	_T1GE
  4063                           	global	_T1GE
  4064  0000                     	_T1GE	set	0x86	;byte address: 0x10
  4065                           
  4066                           	global	_T1GINV
  4067                           	global	_T1GINV
  4068  0000                     	_T1GINV	set	0x87	;byte address: 0x10
  4069                           
  4070                           	global	_T1GSS
  4071                           	global	_T1GSS
  4072  0000                     	_T1GSS	set	0xD1	;byte address: 0x1A
  4073                           
  4074                           	global	_T1OSCEN
  4075                           	global	_T1OSCEN
  4076  0000                     	_T1OSCEN	set	0x83	;byte address: 0x10
  4077                           
  4078                           	global	_T1SYNC
  4079                           	global	_T1SYNC
  4080  0000                     	_T1SYNC	set	0x82	;byte address: 0x10
  4081                           
  4082                           	global	_T2CKPS0
  4083                           	global	_T2CKPS0
  4084  0000                     	_T2CKPS0	set	0x90	;byte address: 0x12
  4085                           
  4086                           	global	_T2CKPS1
  4087                           	global	_T2CKPS1
  4088  0000                     	_T2CKPS1	set	0x91	;byte address: 0x12
  4089                           
  4090                           	global	_TMR1CS
  4091                           	global	_TMR1CS
  4092  0000                     	_TMR1CS	set	0x81	;byte address: 0x10
  4093                           
  4094                           	global	_TMR1IE
  4095                           	global	_TMR1IE
  4096  0000                     	_TMR1IE	set	0x460	;byte address: 0x8C
  4097                           
  4098                           	global	_TMR1IF
  4099                           	global	_TMR1IF
  4100  0000                     	_TMR1IF	set	0x60	;byte address: 0xC
  4101                           
  4102                           	global	_TMR1ON
  4103                           	global	_TMR1ON
  4104  0000                     	_TMR1ON	set	0x80	;byte address: 0x10
  4105                           
  4106                           	global	_TMR2IE
  4107                           	global	_TMR2IE
  4108  0000                     	_TMR2IE	set	0x461	;byte address: 0x8C
  4109                           
  4110                           	global	_TMR2IF
  4111                           	global	_TMR2IF
  4112  0000                     	_TMR2IF	set	0x61	;byte address: 0xC
  4113                           
  4114                           	global	_TMR2ON
  4115                           	global	_TMR2ON
  4116  0000                     	_TMR2ON	set	0x92	;byte address: 0x12
  4117                           
  4118                           	global	_TO
  4119                           	global	_TO
  4120  0000                     	_TO	set	0x1C	;byte address: 0x3
  4121                           
  4122                           	global	_TOUTPS0
  4123                           	global	_TOUTPS0
  4124  0000                     	_TOUTPS0	set	0x93	;byte address: 0x12
  4125                           
  4126                           	global	_TOUTPS1
  4127                           	global	_TOUTPS1
  4128  0000                     	_TOUTPS1	set	0x94	;byte address: 0x12
  4129                           
  4130                           	global	_TOUTPS2
  4131                           	global	_TOUTPS2
  4132  0000                     	_TOUTPS2	set	0x95	;byte address: 0x12
  4133                           
  4134                           	global	_TOUTPS3
  4135                           	global	_TOUTPS3
  4136  0000                     	_TOUTPS3	set	0x96	;byte address: 0x12
  4137                           
  4138                           	global	_TRISIO0
  4139  0000                     	_TRISIO0	set	0x428	;byte address: 0x85
  4140                           
  4141                           	global	_TRISIO1
  4142  0000                     	_TRISIO1	set	0x429	;byte address: 0x85
  4143                           
  4144                           	global	_TRISIO2
  4145  0000                     	_TRISIO2	set	0x42A	;byte address: 0x85
  4146                           
  4147                           	global	_TRISIO3
  4148                           	global	_TRISIO3
  4149  0000                     	_TRISIO3	set	0x42B	;byte address: 0x85
  4150                           
  4151                           	global	_TRISIO4
  4152  0000                     	_TRISIO4	set	0x42C	;byte address: 0x85
  4153                           
  4154                           	global	_TRISIO5
  4155  0000                     	_TRISIO5	set	0x42D	;byte address: 0x85
  4156                           
  4157                           	global	_TUN0
  4158                           	global	_TUN0
  4159  0000                     	_TUN0	set	0x480	;byte address: 0x90
  4160                           
  4161                           	global	_TUN1
  4162                           	global	_TUN1
  4163  0000                     	_TUN1	set	0x481	;byte address: 0x90
  4164                           
  4165                           	global	_TUN2
  4166                           	global	_TUN2
  4167  0000                     	_TUN2	set	0x482	;byte address: 0x90
  4168                           
  4169                           	global	_TUN3
  4170                           	global	_TUN3
  4171  0000                     	_TUN3	set	0x483	;byte address: 0x90
  4172                           
  4173                           	global	_TUN4
  4174                           	global	_TUN4
  4175  0000                     	_TUN4	set	0x484	;byte address: 0x90
  4176                           
  4177                           	global	_ULPWUE
  4178                           	global	_ULPWUE
  4179  0000                     	_ULPWUE	set	0x475	;byte address: 0x8E
  4180                           
  4181                           	global	_VCFG
  4182                           	global	_VCFG
  4183  0000                     	_VCFG	set	0xFE	;byte address: 0x1F
  4184                           
  4185                           	global	_VR0
  4186                           	global	_VR0
  4187  0000                     	_VR0	set	0x4C8	;byte address: 0x99
  4188                           
  4189                           	global	_VR1
  4190                           	global	_VR1
  4191  0000                     	_VR1	set	0x4C9	;byte address: 0x99
  4192                           
  4193                           	global	_VR2
  4194                           	global	_VR2
  4195  0000                     	_VR2	set	0x4CA	;byte address: 0x99
  4196                           
  4197                           	global	_VR3
  4198                           	global	_VR3
  4199  0000                     	_VR3	set	0x4CB	;byte address: 0x99
  4200                           
  4201                           	global	_VREN
  4202                           	global	_VREN
  4203  0000                     	_VREN	set	0x4CF	;byte address: 0x99
  4204                           
  4205                           	global	_VRR
  4206                           	global	_VRR
  4207  0000                     	_VRR	set	0x4CD	;byte address: 0x99
  4208                           
  4209                           	global	_WDTPS0
  4210                           	global	_WDTPS0
  4211  0000                     	_WDTPS0	set	0xC1	;byte address: 0x18
  4212                           
  4213                           	global	_WDTPS1
  4214                           	global	_WDTPS1
  4215  0000                     	_WDTPS1	set	0xC2	;byte address: 0x18
  4216                           
  4217                           	global	_WDTPS2
  4218                           	global	_WDTPS2
  4219  0000                     	_WDTPS2	set	0xC3	;byte address: 0x18
  4220                           
  4221                           	global	_WDTPS3
  4222                           	global	_WDTPS3
  4223  0000                     	_WDTPS3	set	0xC4	;byte address: 0x18
  4224                           
  4225                           	global	_WPU0
  4226  0000                     	_WPU0	set	0x4A8	;byte address: 0x95
  4227                           
  4228                           	global	_WPU1
  4229                           	global	_WPU1
  4230  0000                     	_WPU1	set	0x4A9	;byte address: 0x95
  4231                           
  4232                           	global	_WPU2
  4233  0000                     	_WPU2	set	0x4AA	;byte address: 0x95
  4234                           
  4235                           	global	_WPU3
  4236                           	global	_WPU3
  4237  0000                     	_WPU3	set	0x4AB	;byte address: 0x95
  4238                           
  4239                           	global	_WPU4
  4240                           	global	_WPU4
  4241  0000                     	_WPU4	set	0x4AC	;byte address: 0x95
  4242                           
  4243                           	global	_WPU5
  4244                           	global	_WPU5
  4245  0000                     	_WPU5	set	0x4AD	;byte address: 0x95
  4246                           
  4247                           	global	_WR
  4248  0000                     	_WR	set	0x4E1	;byte address: 0x9C
  4249                           
  4250                           	global	_WREN
  4251  0000                     	_WREN	set	0x4E2	;byte address: 0x9C
  4252                           
  4253                           	global	_WRERR
  4254                           	global	_WRERR
  4255  0000                     	_WRERR	set	0x4E3	;byte address: 0x9C
  4256                           
  4257                           	global	_ZERO
  4258                           	global	_ZERO
  4259  0000                     	_ZERO	set	0x1A	;byte address: 0x3
  4260                           
  4261                           	psect	strings
  4262                           	
  4263  011F                     STR_1:	
  4264  011F  3449               	retlw	73	;'I'
  4265  0120  3472               	retlw	114	;'r'
  4266  0121  3420               	retlw	32	;' '
  4267  0122  3463               	retlw	99	;'c'
  4268  0123  3461               	retlw	97	;'a'
  4269  0124  3474               	retlw	116	;'t'
  4270  0125  3463               	retlw	99	;'c'
  4271  0126  3468               	retlw	104	;'h'
  4272  0127  3420               	retlw	32	;' '
  4273  0128  3472               	retlw	114	;'r'
  4274  0129  3465               	retlw	101	;'e'
  4275  012A  3461               	retlw	97	;'a'
  4276  012B  3464               	retlw	100	;'d'
  4277  012C  3479               	retlw	121	;'y'
  4278  012D  342E               	retlw	46	;'.'
  4279  012E  340A               	retlw	10
  4280  012F  3400               	retlw	0
  4281                           	
  4282  0130                     STR_3:	
  4283  0130  344B               	retlw	75	;'K'
  4284  0131  3461               	retlw	97	;'a'
  4285  0132  3464               	retlw	100	;'d'
  4286  0133  3465               	retlw	101	;'e'
  4287  0134  346E               	retlw	110	;'n'
  4288  0135  3420               	retlw	32	;' '
  4289  0136  346B               	retlw	107	;'k'
  4290  0137  3479               	retlw	121	;'y'
  4291  0138  346F               	retlw	111	;'o'
  4292  0139  346B               	retlw	107	;'k'
  4293  013A  3461               	retlw	97	;'a'
  4294  013B  3469               	retlw	105	;'i'
  4295  013C  340A               	retlw	10
  4296  013D  3400               	retlw	0
  4297                           	
  4298  013E                     STR_12:	
  4299  013E  3453               	retlw	83	;'S'
  4300  013F  3469               	retlw	105	;'i'
  4301  0140  3467               	retlw	103	;'g'
  4302  0141  346E               	retlw	110	;'n'
  4303  0142  3461               	retlw	97	;'a'
  4304  0143  346C               	retlw	108	;'l'
  4305  0144  3420               	retlw	32	;' '
  4306  0145  3448               	retlw	72	;'H'
  4307  0146  3420               	retlw	32	;' '
  4308  0147  346D               	retlw	109	;'m'
  4309  0148  3469               	retlw	105	;'i'
  4310  0149  346E               	retlw	110	;'n'
  4311  014A  3400               	retlw	0
  4312                           	
  4313  014B                     STR_16:	
  4314  014B  3453               	retlw	83	;'S'
  4315  014C  3469               	retlw	105	;'i'
  4316  014D  3467               	retlw	103	;'g'
  4317  014E  346E               	retlw	110	;'n'
  4318  014F  3461               	retlw	97	;'a'
  4319  0150  346C               	retlw	108	;'l'
  4320  0151  3420               	retlw	32	;' '
  4321  0152  344C               	retlw	76	;'L'
  4322  0153  3420               	retlw	32	;' '
  4323  0154  3461               	retlw	97	;'a'
  4324  0155  3476               	retlw	118	;'v'
  4325  0156  3467               	retlw	103	;'g'
  4326  0157  3400               	retlw	0
  4327                           	
  4328  0158                     STR_13:	
  4329  0158  3453               	retlw	83	;'S'
  4330  0159  3469               	retlw	105	;'i'
  4331  015A  3467               	retlw	103	;'g'
  4332  015B  346E               	retlw	110	;'n'
  4333  015C  3461               	retlw	97	;'a'
  4334  015D  346C               	retlw	108	;'l'
  4335  015E  3420               	retlw	32	;' '
  4336  015F  3448               	retlw	72	;'H'
  4337  0160  3420               	retlw	32	;' '
  4338  0161  3461               	retlw	97	;'a'
  4339  0162  3476               	retlw	118	;'v'
  4340  0163  3467               	retlw	103	;'g'
  4341  0164  3400               	retlw	0
  4342                           	
  4343  0165                     STR_15:	
  4344  0165  3453               	retlw	83	;'S'
  4345  0166  3469               	retlw	105	;'i'
  4346  0167  3467               	retlw	103	;'g'
  4347  0168  346E               	retlw	110	;'n'
  4348  0169  3461               	retlw	97	;'a'
  4349  016A  346C               	retlw	108	;'l'
  4350  016B  3420               	retlw	32	;' '
  4351  016C  344C               	retlw	76	;'L'
  4352  016D  3420               	retlw	32	;' '
  4353  016E  346D               	retlw	109	;'m'
  4354  016F  3469               	retlw	105	;'i'
  4355  0170  346E               	retlw	110	;'n'
  4356  0171  3400               	retlw	0
  4357                           	
  4358  0172                     STR_5:	
  4359  0172  3453               	retlw	83	;'S'
  4360  0173  3469               	retlw	105	;'i'
  4361  0174  3467               	retlw	103	;'g'
  4362  0175  346E               	retlw	110	;'n'
  4363  0176  3461               	retlw	97	;'a'
  4364  0177  346C               	retlw	108	;'l'
  4365  0178  3420               	retlw	32	;' '
  4366  0179  3463               	retlw	99	;'c'
  4367  017A  346F               	retlw	111	;'o'
  4368  017B  3475               	retlw	117	;'u'
  4369  017C  346E               	retlw	110	;'n'
  4370  017D  3474               	retlw	116	;'t'
  4371  017E  3400               	retlw	0
  4372                           	
  4373  017F                     STR_11:	
  4374  017F  3453               	retlw	83	;'S'
  4375  0180  3469               	retlw	105	;'i'
  4376  0181  3467               	retlw	103	;'g'
  4377  0182  346E               	retlw	110	;'n'
  4378  0183  3461               	retlw	97	;'a'
  4379  0184  346C               	retlw	108	;'l'
  4380  0185  3420               	retlw	32	;' '
  4381  0186  3448               	retlw	72	;'H'
  4382  0187  3420               	retlw	32	;' '
  4383  0188  346D               	retlw	109	;'m'
  4384  0189  3461               	retlw	97	;'a'
  4385  018A  3478               	retlw	120	;'x'
  4386  018B  3400               	retlw	0
  4387                           	
  4388  018C                     STR_14:	
  4389  018C  3453               	retlw	83	;'S'
  4390  018D  3469               	retlw	105	;'i'
  4391  018E  3467               	retlw	103	;'g'
  4392  018F  346E               	retlw	110	;'n'
  4393  0190  3461               	retlw	97	;'a'
  4394  0191  346C               	retlw	108	;'l'
  4395  0192  3420               	retlw	32	;' '
  4396  0193  344C               	retlw	76	;'L'
  4397  0194  3420               	retlw	32	;' '
  4398  0195  346D               	retlw	109	;'m'
  4399  0196  3461               	retlw	97	;'a'
  4400  0197  3478               	retlw	120	;'x'
  4401  0198  3400               	retlw	0
  4402                           	
  4403  0199                     STR_6:	
  4404  0199  344C               	retlw	76	;'L'
  4405  019A  3465               	retlw	101	;'e'
  4406  019B  3461               	retlw	97	;'a'
  4407  019C  3464               	retlw	100	;'d'
  4408  019D  3465               	retlw	101	;'e'
  4409  019E  3472               	retlw	114	;'r'
  4410  019F  3420               	retlw	32	;' '
  4411  01A0  3448               	retlw	72	;'H'
  4412  01A1  342F               	retlw	47	;'/'
  4413  01A2  3438               	retlw	56	;'8'
  4414  01A3  3400               	retlw	0
  4415                           	
  4416  01A4                     STR_7:	
  4417  01A4  344C               	retlw	76	;'L'
  4418  01A5  3465               	retlw	101	;'e'
  4419  01A6  3461               	retlw	97	;'a'
  4420  01A7  3464               	retlw	100	;'d'
  4421  01A8  3465               	retlw	101	;'e'
  4422  01A9  3472               	retlw	114	;'r'
  4423  01AA  3420               	retlw	32	;' '
  4424  01AB  344C               	retlw	76	;'L'
  4425  01AC  342F               	retlw	47	;'/'
  4426  01AD  3438               	retlw	56	;'8'
  4427  01AE  3400               	retlw	0
  4428                           	
  4429  01AF                     STR_2:	
  4430  01AF  3446               	retlw	70	;'F'
  4431  01B0  346F               	retlw	111	;'o'
  4432  01B1  3472               	retlw	114	;'r'
  4433  01B2  346D               	retlw	109	;'m'
  4434  01B3  3461               	retlw	97	;'a'
  4435  01B4  3474               	retlw	116	;'t'
  4436  01B5  3420               	retlw	32	;' '
  4437  01B6  343D               	retlw	61	;'='
  4438  01B7  3420               	retlw	32	;' '
  4439  01B8  3400               	retlw	0
  4440                           	
  4441  01B9                     STR_9:	
  4442  01B9  3454               	retlw	84	;'T'
  4443  01BA  3465               	retlw	101	;'e'
  4444  01BB  3472               	retlw	114	;'r'
  4445  01BC  346E               	retlw	110	;'n'
  4446  01BD  3420               	retlw	32	;' '
  4447  01BE  346D               	retlw	109	;'m'
  4448  01BF  3469               	retlw	105	;'i'
  4449  01C0  346E               	retlw	110	;'n'
  4450  01C1  3400               	retlw	0
  4451                           	
  4452  01C2                     STR_8:	
  4453  01C2  3454               	retlw	84	;'T'
  4454  01C3  3465               	retlw	101	;'e'
  4455  01C4  3472               	retlw	114	;'r'
  4456  01C5  346E               	retlw	110	;'n'
  4457  01C6  3420               	retlw	32	;' '
  4458  01C7  346D               	retlw	109	;'m'
  4459  01C8  3461               	retlw	97	;'a'
  4460  01C9  3478               	retlw	120	;'x'
  4461  01CA  3400               	retlw	0
  4462                           	
  4463  01CB                     STR_17:	
  4464  01CB  3444               	retlw	68	;'D'
  4465  01CC  3461               	retlw	97	;'a'
  4466  01CD  3474               	retlw	116	;'t'
  4467  01CE  3461               	retlw	97	;'a'
  4468  01CF  3420               	retlw	32	;' '
  4469  01D0  344E               	retlw	78	;'N'
  4470  01D1  346F               	retlw	111	;'o'
  4471  01D2  342E               	retlw	46	;'.'
  4472  01D3  3400               	retlw	0
  4473                           	
  4474  01D4                     STR_10:	
  4475  01D4  3454               	retlw	84	;'T'
  4476  01D5  3465               	retlw	101	;'e'
  4477  01D6  3472               	retlw	114	;'r'
  4478  01D7  346E               	retlw	110	;'n'
  4479  01D8  3420               	retlw	32	;' '
  4480  01D9  3461               	retlw	97	;'a'
  4481  01DA  3476               	retlw	118	;'v'
  4482  01DB  3467               	retlw	103	;'g'
  4483  01DC  3400               	retlw	0
  4484                           	
  4485  01DD                     STR_4:	
  4486  01DD  344E               	retlw	78	;'N'
  4487  01DE  3445               	retlw	69	;'E'
  4488  01DF  3443               	retlw	67	;'C'
  4489  01E0  340A               	retlw	10
  4490  01E1  3400               	retlw	0
  4491                           	PSECT	fnauto0,class=BANK0,space=1
  4492                           	FNCONF	fnauto0,??,?
  4493                           
  4494                           	DABS	1,126,2	;btemp
  4495                           	global	btemp
  4496  0000                     	btemp set 07Eh
  4497                           apbank macro
  4498                           	bcf	status,5
  4499                           	bcf	status,6
  4500  0051                     	endm


HI-TECH Software PICC Macro Assembler V9.60PL5 build 3884 
Symbol Table                                          Tue Oct 20 10:29:57 2009

         _scif_tx_bit 0079           _scif_tx_buf 0076  
            __Lrbss_0 0040                     l4 00F1  
                   l5 0054                     l6 0056  
                   l7 00D5                     l8 00F0  
           __Lrdata_0 0000                     pc 0002  
        ??_ir_analize 0055             __Lramdata 0000  
        _scif_tx_init 05D1          _scif_tx_next 03E8  
                  l10 00EA                    l11 00F7  
                  l12 00F5                    l21 0538  
                  l30 0354                    l22 05AB  
                  l14 05DC                    _DC 0019  
                  l15 0551                    l23 0365  
                  l31 0365                    l24 0306  
                  l40 04BC                    l17 0551  
                  l33 05C0                    l25 0318  
                  l41 04A8                    l18 0531  
                  l34 05B7                    l50 0483  
                  l42 04BC                    l19 0532  
                  l35 05AF                    l51 0476  
                  l36 05C0                    l28 0349  
                  l52 0452                    l44 04B6  
                  l29 031A                    l53 047E  
                  l45 044A                    l61 0374  
                  l37 0596                    l54 045F  
                  l46 0434                    l70 039B  
                  l62 037E                    l38 0581  
                  l55 0464                    l39 05E7  
                  l47 044A                    l63 03BD  
                  l56 0471                    l80 0211  
                  l72 03A1                    l57 0476  
                  l81 020B                    l49 0444  
                  l73 03A9                    l65 03B7  
                  l82 0212                    l58 03BF  
                  l74 03A3                    l66 0384  
                  l91 0238                    l67 03B3  
                  l59 036D                    l92 02B9  
                  l84 0216                    l76 03A9  
                  l77 02FF                    l85 0220  
                  l69 03A2                    l94 023E  
                  l78 020B                    l87 0224  
                  l79 0202                    l96 0242  
                  l88 0232                    l89 02CA  
                  l97 0256                    l98 0260  
                  l99 0260                    _PD 001B  
                  _RD 04E0                    _TO 001C  
                  _WR 04E1                    _hl 0073  
                  _hs 0074                    _ll 007B  
                  _ls 007C                    _tl 0077  
                  _ts 0078                    fsr 0004  
        ??_ir_control 0055    _eeprom_write_value 0057  
     ___lwmod_divisor 0065       ___lwmod_counter 0067  
__end_of_scif_tx_init 05DD                   l100 0261  
                 l110 02AF                   l102 026B  
                 l111 02AF                   l103 0274  
                 l112 02C0                   l104 029A  
                 l105 028F                   l130 03DD  
                 l106 0299                   l123 0409  
                 l131 03F5                   l107 0299  
                 l124 0402                   l132 04F4  
                 l140 04E6                   l108 02AF  
                 l125 03D9                   l133 04F3  
                 l109 02A5                   l126 03CE  
                 l134 04D2                   l127 03DD  
                 l135 04C7                   l136 04D6  
                 l129 0402                   l138 04F3  
                 l139 04D6                   l440 0515  
                 l433 0524                   l441 0524  
                 l442 056A                   l435 0524  
                 l443 0555                   l436 04F6  
                 l444 0554                   l437 04F8  
                 l445 055A                   _CM0 00C8  
                 l438 04F7                   _CM1 00C9  
                 l439 04FD                   _CM2 00CA  
                 _BOD 0470                   _CIS 00CB  
                 _GIE 005F                   _IOC 0096  
                 _FSR 0004                   _PCL 0002  
                 _PS0 0408                   _PR2 0092  
                 _PS1 0409                   _RP0 001D  
                 _PS2 040A                   _IRP 001F  
                 _RP1 001E                   _HTS 047A  
                 i1l1 05C6                   i1l2 05C6  
                 _SCS 0478                   _PSA 040B  
                 _LTS 0479                   _VR0 04C8  
                 _VR1 04C9                   _VR2 04CA  
                 _VR3 04CB                   _POR 0471  
                 _VRR 04CD                   _WPU 0095  
           l600000742 026B                   indf 0000  
    ___lwmod_dividend 0063         ?_eeprom_write 0057  
    ___lwdiv_dividend 0063               ??_entry 006B  
                _ADIE 0466                  _ADIF 0066  
                _ADFM 00FF              __tempreg 0051  
                _ADON 00F8                  _CHS0 00FA  
                _CHS1 00FB                  _CHS2 00FC  
                _EEIE 0467                  _EEIF 0067  
                _ANS0 04F8                  _ANS1 04F9  
                STR_1 011F                  _ANS2 04FA  
                STR_2 01AF                  _ANS3 04FB  
                STR_3 0130                  STR_4 01DD  
                STR_5 0172                  STR_6 0199  
                STR_7 01A4                  STR_8 01C2  
                STR_9 01B9                  _CMIE 0463  
                _CMIF 0063                  _CINV 00CC  
                _T1GE 0086                  _T0IE 005D  
                _T0IF 005A                  _T0CS 040D  
                _IOC0 04B0                  _IOC1 04B1  
                _IOC2 04B2                  _IOC3 04B3  
                _IOC4 04B4                  _IOC5 04B5  
                u3000 0280                  u3001 027F  
                u3010 028A                  _T0SE 040C  
                u3011 0289                  u3020 0295  
                u3021 0294                  _INDF 0000  
                u3030 02A0                  _GPIE 005B  
                u3031 029F                  _GPIF 0058  
                u3200 0318                  u3120 055A  
                u3040 02AB                  u3201 0317  
                u3121 0559                  u3105 02F2  
                u3041 02AA                  _COUT 00CE  
                u3210 0349                  u3130 04FD  
                u3050 02B9                  u3211 0348  
                u3131 04FC                  u3115 059B  
                u3051 02B8                  u3300 04C3  
                u3220 0353                  u3140 0514  
                u3060 02BF                  u3301 04C2  
                u3221 0352                  u3141 0513  
                u3061 02BE               ??_putch 0063  
                u3230 0365                  u3150 0523  
                u3070 02CA                  u3231 0364  
                u3151 0522                  u3071 02C9  
                u3400 03EE                  u3320 04D6  
                u3240 05C0                  u3160 0459  
                _GPIO 0005                  u3401 03ED  
                u3321 04D5                  u3241 05BF  
                u3161 0458                  u3330 04E0  
                u3250 0538                  u3170 046C  
             ??_puthc 0059                  u3331 04DF  
                u3315 04C8                  u3251 0537  
                u3171 046B                  u3420 0402  
                u3260 053E                  u3180 047E  
                u3421 0401                  u3405 03EA  
                u3261 053B                  u3181 047D  
                u3085 02D2                  u3350 04F3  
                _PIE1 008C                  u3415 03F6  
                u3351 04F2                  u3335 04DC  
                u3095 02E2                  u3360 03CA  
                u3361 03C9                  u3345 04E7  
                u3290 0551                  u3274 0540  
                u3291 0550                  u3380 03DD  
                u2900 0216                  u2820 039A  
                u3381 03DC                  u3285 0549  
                u2901 0215                  u2821 0399  
                u3437 0032                  u2910 0224  
                u2830 03A1                  u2814 0391  
                u2750 0042                  u3375 03CF  
                u3447 045B                  u2911 0223  
                u2831 03A0                  u2815 038F  
                u2751 0041                  u2840 03A9  
                u2760 0051                  u3457 0461  
                u2841 03A8                  u2761 0050  
                u2850 03B3                  u2770 00F0  
                _PEIE 005E                  u3395 03DE  
                u3467 046E                  u2851 03B2  
                u2771 00EF                  u2940 0242  
                u2860 03BD                  u2780 04BC  
                _INTE 005C                  _GPPU 040F  
                u3477 0473                  u2941 0241  
                u2861 03BC                  u2781 04BB  
                _INTF 0059                  u2950 0251  
                u2870 044A                  u2790 0374  
                u2951 0250                  u2871 0449  
                u2791 0373                  u2960 025C  
                u2880 0206                  u2961 025B  
                u2881 0205                  u2970 0265  
                u2890 0211                  u2971 0264  
                u2891 0210                  u2980 026B  
                u2981 026A                  u2990 0273  
                u2991 0272                  _PCON 008E  
                _PIR1 000C               ??_putui 005C  
                _VCFG 00FE                  _TMR0 0001  
                _TMR2 0011             __databank 0000  
                _OSTS 047B                  _TUN0 0480  
                _TUN1 0481                  _TUN2 0482  
                _TUN3 0483                  _TUN4 0484  
                _VREN 04CF                  _WPU0 04A8  
                _WPU1 04A9                  _WPU2 04AA  
                _WPU3 04AB                  _WPU4 04AC  
                _ZERO 001A                  _WPU5 04AD  
                _WREN 04E2                  _main 0022  
                btemp 007E                  _puts 05AC  
                start 000F             _deb_dat_d 0055  
           _deb_dat_h 0057     interrupt_function 0004  
           _deb_sig_d 0055             _deb_sig_s 0057  
       ?_scif_tx_init 0055             stringcode 0108  
     __end_of___lwdiv 040A      ___lwdiv_quotient 0068  
     __end_of___lwmod 04F5               _CCP1CON 0015  
     __end_of_deb_dat 0582       __end_of_deb_sig 0597  
            _puthc_hc 010F                 _DC1B0 00AC  
               _DC1B1 00AD                 _ADCS0 04FC  
               _ADCS1 04FD                 _ADCS2 04FE  
               ?_main 0051                 _EEADR 009B  
               _EEDAT 009A                 STR_10 01D4  
               STR_11 017F                 STR_12 013E  
               STR_13 0158                 STR_14 018C  
               STR_15 0165                 STR_16 014B  
               STR_17 01CB                 _CARRY 0018  
               ?_puts 0059                 _ANSEL 009F  
               _T1CON 0010              _putui_ui 0059  
               _T2CON 0012                 _T1GSS 00D1  
             _T1CKPS0 0084               _T1CKPS1 0085  
               _GPIO0 0028                 _GPIO1 0029  
               _GPIO2 002A                 _GPIO3 002B  
               _GPIO4 002C                 _GPIO5 002D  
               _IRCF0 047C                 _IRCF1 047D  
               _IRCF2 047E               _T2CKPS0 0090  
             _T2CKPS1 0091         __end_of_entry 05D1  
        _ir_analize_b 0055          _ir_analize_i 0056  
               _OSFIE 0462                 _OSFIF 0062  
               _TMR1H 000F                 _TMR1L 000E  
             _T1OSCEN 0083         __end_of_putch 0552  
       __end_of_puthc 05AC                 _VRCON 0099  
       __end_of_putui 0366                 _WRERR 04E3  
     __end_of_ir_load 044B       __end_of_ir_init 05E8  
     __end_of_ir_save 04BD       __end_of_ir_shot 0484  
             _OSCTUNE 0090                 _entry 05C1  
             _TRISIO0 0428               _TRISIO1 0429  
             _TRISIO2 042A               _TRISIO3 042B  
             _TRISIO4 042C               _TRISIO5 042D  
               _putch 0525                 _puthc 0597  
               _putui 0300               _TOUTPS0 0093  
             _TOUTPS1 0094               _TOUTPS2 0095  
             _TOUTPS3 0096           _eeprom_read 0552  
               pclath 000A             _ir_load_i 0055  
 __end_of_eeprom_read 056B             _ir_save_i 0055  
            intlevel1 0004                 status 0003  
           _ir_shot_t 0058          _ir_control_b 0055  
        _ir_control_i 0056      _eeprom_read_addr 0057  
   _eeprom_write_addr 0058           __stringbase 010E  
             ___lwdiv 03C0          ?_eeprom_read 0057  
             ___lwmod 04BD              ?___lwdiv 0063  
             _deb_dat 056B              ?___lwmod 0063  
             _deb_sig 0582              ?_deb_dat 0055  
            ?_deb_sig 0055             ??___lwdiv 0067  
           ??___lwmod 0067                ??_main 0051  
     ___lwdiv_divisor 0065             ??_deb_dat 0058  
           ??_deb_sig 0057                ??_puts 0059  
     ___lwdiv_counter 0067               _ir_ldrh 0072  
             _ir_ldrl 0040               _ir_load 040A  
             _ir_init 05DD               _ir_save 0484  
             _ir_sigh 0071               _ir_scnt 0070  
             _ir_sigl 0075               _ir_shot 044B  
            ?_ir_load 0055              ?_ir_init 0055  
             _ir_turn 007A              ?_ir_save 0055  
            ?_ir_shot 0058        ??_eeprom_write 0058  
           ??_ir_load 0055             ??_ir_init 0055  
           ??_ir_save 0055             ??_ir_shot 0058  
            stringdir 0109              stringjmp 010D  
            stringtab 0100                _ADCON0 001F  
              _CCP1M0 00A8                _CCP1M1 00A9  
              _CCP1M2 00AA                _CCP1M3 00AB  
              _CCP1IE 0465                _CCP1IF 0065  
              ?_entry 006B                _ADRESH 001E  
              _ADRESL 009E                _EEADRL 009B  
             _putch_c 0063                _EEDATA 009A  
              _CCPR1H 0014                _CCPR1L 0013  
             _puthc_d 0059                _EECON1 009C  
              _EECON2 009D                _CMCON0 0019  
              _CMCON1 001A                ?_putch 0063  
              ?_puthc 0059               _putui_d 005B  
             _putui_i 005C          __end_of_main 00F9  
              ?_putui 0059             _putui_buf 005D  
              _T1GINV 0087             idloc_word 2000  
              _CMSYNC 00D0                _GODONE 00F9  
        __end_of_puts 05C1                _T1SYNC 0082  
              _INTEDG 040E                _PCLATH 000A  
              _INTCON 000B                i1u2060 05C5  
              i1u2061 05C4                _SBODEN 0474  
       _ir_analize_sp 0057                _OSCCON 008F  
              _TMR1IE 0460                _TMR1IF 0060  
              _TMR1CS 0081                _TMR2IE 0461  
              _TMR2IF 0061                _TMR1ON 0080  
              _OPTION 0081                _TMR2ON 0092  
              _WDTCON 0018                _WDTPS0 00C1  
              _WDTPS1 00C2                _WDTPS2 00C3  
              _WDTPS3 00C4                _STATUS 0003  
              _TRISIO 0085                _SWDTEN 00C0  
              _ULPWUE 0475        ??_scif_tx_init 0055  
              _main_i 0051         ??_eeprom_read 0057  
              _ir_sig 0041                _puts_s 0059  
          _ir_analize 01E2    __end_of_ir_analize 0300  
        _eeprom_write 04F5            _ir_control 0366  
              saved_w 007F    __end_of_ir_control 03C0  
         ?_ir_analize 0055  __end_of_eeprom_write 0525  
         ?_ir_control 0055              __Hcommon 007E  
           __Hrdata_0 0001             __Hramdata 0001  
            __Hrbss_0 0051              __Lcommon 0070  
